(dp0
Fnan
I0
sV25b2ee5a-8d2f-47c4-9cf3-6beba1dc4be3@fake.data.com/operator0
p1
I13
sVe3cd27a1-e082-44b4-9ee1-7f5c0d2d4f9f@visitors.fake.data.com/0df195e8-c828-4a59-8001-63d38edb67a3
p2
I23
sV7ea01afd-28f4-4f8c-a9d1-e97bdeb4df0b@fake.data.com/operator0
p3
I3
sVf3964c3a-d694-4cc2-837c-5187a78de714@fake.data.com/operator0
p4
I4
sV7d79a0ff-f1dc-4702-a166-3c7f3ae3f9df@fake.data.com/operator0
p5
I6
sV5fd2b6e4-5b65-4d1e-b226-10ee9b0b4b37@visitors.fake.data.com/161008b0-1398-42fc-830b-4e05d33059af
p6
I7
sV4d688d54-0aa7-4e41-89ac-cc582409bc18@visitors.fake.data.com/de32a8db-4343-43fe-9b64-910857eed1fb
p7
I16
sV998b78e2-a4ea-4ba7-a07d-f638503545f9@fake.data.com/operator0
p8
I32
sV1e5e67db-3b42-438f-b60c-a1b84bbeb8a9@fake.data.com/operator0
p9
I10
sVba84abe1-bae5-4fbb-9470-cc8d505c151e@visitors.fake.data.com/583e4ebc-db21-43e0-9db9-c86dbc995b3b
p10
I11
sVcf486ff2-34e0-4b32-91a5-3e693f0fd5ae@visitors.fake.data.com/f8bed1f7-8fa6-4cd2-b048-9fbad5009597
p11
I12
sVbc1b2ea3-3c03-4303-9653-f63bccfc07b3@visitors.fake.data.com/34fdb384-68b9-4f22-babb-a4580c9f9733
p12
I1
sV3d856796-4d69-459c-9a67-ccae0dfa9703@visitors.fake.data.com/51850318-64fe-40aa-b6cd-00ac5b4cbad3
p13
I14
sV8a6389bb-4cf9-4786-9384-1e7e1e26bc32@visitors.fake.data.com/f00301ce-a56b-4da0-9802-fd1a2d6fb949
p14
I15
sV12990f12-a965-4250-bffc-0e25bbd923e9@fake.data.com/operator0
p15
I8
sVab4d6bba-4c49-4974-8e38-1846310231da@visitors.fake.data.com/bce1094c-1324-48e5-95e2-f14525377187
p16
I17
sV3d856796-4d69-459c-9a67-ccae0dfa9703@visitors.fake.data.com/d4aab53c-52dd-452f-8848-ebdc2aeb91ef
p17
I18
sV22c03846-6a99-46a8-a098-d431a428d3fd@visitors.fake.data.com/3f7767e9-3314-4608-9538-24a5107c95b4
p18
I19
sVf73d2710-893b-4325-9764-81b9b2747ba5@visitors.fake.data.com/b63f4fe0-4baa-43b1-95a9-6bc20332abfa
p19
I20
sV4d688d54-0aa7-4e41-89ac-cc582409bc18@visitors.fake.data.com/e63fb398-449d-4685-af93-e332beb33ef8
p20
I34
sV9f3132d8-b469-4ea0-a1cd-7a82b63ba188@fake.data.com/operator0
p21
I29
sV5fd2b6e4-5b65-4d1e-b226-10ee9b0b4b37@visitors.fake.data.com/d236d09b-41d9-48e0-88f8-355f5b7a399a
p22
I22
sV22c03846-6a99-46a8-a098-d431a428d3fd@visitors.fake.data.com/46dc9398-a4fe-4345-8a8c-a207a136646c
p23
I2
sV0479ad2e-06ef-41e5-82e8-c709c0db2918@visitors.fake.data.com/bfe335bc-908b-4e6f-8044-40ec76fb28b0
p24
I24
sV7b023cbb-284f-4013-9a74-1ec2346a5afd@fake.data.com/operator0
p25
I25
sV101ab834-3b2e-4d93-8b81-4da6ea20932d@fake.data.com/operator0
p26
I26
sV2d961835-4eb3-4cca-a411-2041027c3d2a@visitors.fake.data.com/3e617dd8-5171-4080-a002-823b53999c5b
p27
I27
sV31b44d5e-e644-4d69-8be7-eb495049275f@visitors.fake.data.com/9518bf1d-f6d9-4b36-9fad-56d77e508154
p28
I28
sV4000d69b-b759-44d2-956a-a05e97e6e94d@fake.data.com/operator0
p29
I21
sV9cb153e7-df05-4d36-a464-fa9e8235e394@visitors.fake.data.com/d8a19c56-f28c-4727-92c1-c3025e267be3
p30
I30
sVfd9a1ee9-a93a-42c0-aee9-596bc5eb5da2@fake.data.com/operator0
p31
I5
sV2242122b-72b3-427f-8b1e-13c7c44b5540@fake.data.com/operator0
p32
I9
sV3d856796-4d69-459c-9a67-ccae0dfa9703@visitors.fake.data.com/769475c9-d90a-4765-b92d-5e8240688d0c
p33
I33
sVc1c3d169-109e-4015-87b2-24aba15253bb@fake.data.com/operator0
p34
I31
sV174d6f63-6818-4852-8087-db3b0aa197e8@fake.data.com/operator0
p35
I35
sV5d86ea99-45c8-413a-80d4-2b1ff2df07bd@visitors.fake.data.com/30bd51e6-b314-4e94-be50-884b9fb41634
p36
I36
s.(dp0
Fnan
I0
sFnan
I37
sV25b2ee5a-8d2f-47c4-9cf3-6beba1dc4be3@fake.data.com/operator0
p1
I13
sV22c03846-6a99-46a8-a098-d431a428d3fd@visitors.fake.data.com/46dc9398-a4fe-4345-8a8c-a207a136646c
p2
I2
sV7ea01afd-28f4-4f8c-a9d1-e97bdeb4df0b@fake.data.com/operator0
p3
I3
sVf3964c3a-d694-4cc2-837c-5187a78de714@fake.data.com/operator0
p4
I4
sV7d79a0ff-f1dc-4702-a166-3c7f3ae3f9df@fake.data.com/operator0
p5
I6
sV5fd2b6e4-5b65-4d1e-b226-10ee9b0b4b37@visitors.fake.data.com/161008b0-1398-42fc-830b-4e05d33059af
p6
I7
sV12990f12-a965-4250-bffc-0e25bbd923e9@fake.data.com/operator0
p7
I8
sV2242122b-72b3-427f-8b1e-13c7c44b5540@fake.data.com/operator0
p8
I9
sV1e5e67db-3b42-438f-b60c-a1b84bbeb8a9@fake.data.com/operator0
p9
I10
sVba84abe1-bae5-4fbb-9470-cc8d505c151e@visitors.fake.data.com/583e4ebc-db21-43e0-9db9-c86dbc995b3b
p10
I11
sVcf486ff2-34e0-4b32-91a5-3e693f0fd5ae@visitors.fake.data.com/f8bed1f7-8fa6-4cd2-b048-9fbad5009597
p11
I12
sVbc1b2ea3-3c03-4303-9653-f63bccfc07b3@visitors.fake.data.com/34fdb384-68b9-4f22-babb-a4580c9f9733
p12
I1
sV3d856796-4d69-459c-9a67-ccae0dfa9703@visitors.fake.data.com/51850318-64fe-40aa-b6cd-00ac5b4cbad3
p13
I14
sVc1c3d169-109e-4015-87b2-24aba15253bb@fake.data.com/operator0
p14
I31
sV8a6389bb-4cf9-4786-9384-1e7e1e26bc32@visitors.fake.data.com/f00301ce-a56b-4da0-9802-fd1a2d6fb949
p15
I15
sV4d688d54-0aa7-4e41-89ac-cc582409bc18@visitors.fake.data.com/de32a8db-4343-43fe-9b64-910857eed1fb
p16
I16
sVab4d6bba-4c49-4974-8e38-1846310231da@visitors.fake.data.com/bce1094c-1324-48e5-95e2-f14525377187
p17
I17
sV3d856796-4d69-459c-9a67-ccae0dfa9703@visitors.fake.data.com/d4aab53c-52dd-452f-8848-ebdc2aeb91ef
p18
I18
sV22c03846-6a99-46a8-a098-d431a428d3fd@visitors.fake.data.com/3f7767e9-3314-4608-9538-24a5107c95b4
p19
I19
sVf73d2710-893b-4325-9764-81b9b2747ba5@visitors.fake.data.com/b63f4fe0-4baa-43b1-95a9-6bc20332abfa
p20
I20
sV4000d69b-b759-44d2-956a-a05e97e6e94d@fake.data.com/operator0
p21
I21
sV5fd2b6e4-5b65-4d1e-b226-10ee9b0b4b37@visitors.fake.data.com/d236d09b-41d9-48e0-88f8-355f5b7a399a
p22
I22
sVe3cd27a1-e082-44b4-9ee1-7f5c0d2d4f9f@visitors.fake.data.com/0df195e8-c828-4a59-8001-63d38edb67a3
p23
I23
sV0479ad2e-06ef-41e5-82e8-c709c0db2918@visitors.fake.data.com/bfe335bc-908b-4e6f-8044-40ec76fb28b0
p24
I24
sV7b023cbb-284f-4013-9a74-1ec2346a5afd@fake.data.com/operator0
p25
I25
sV101ab834-3b2e-4d93-8b81-4da6ea20932d@fake.data.com/operator0
p26
I26
sV2d961835-4eb3-4cca-a411-2041027c3d2a@visitors.fake.data.com/3e617dd8-5171-4080-a002-823b53999c5b
p27
I27
sV31b44d5e-e644-4d69-8be7-eb495049275f@visitors.fake.data.com/9518bf1d-f6d9-4b36-9fad-56d77e508154
p28
I28
sV9f3132d8-b469-4ea0-a1cd-7a82b63ba188@fake.data.com/operator0
p29
I29
sV9cb153e7-df05-4d36-a464-fa9e8235e394@visitors.fake.data.com/d8a19c56-f28c-4727-92c1-c3025e267be3
p30
I30
sVfd9a1ee9-a93a-42c0-aee9-596bc5eb5da2@fake.data.com/operator0
p31
I5
sV998b78e2-a4ea-4ba7-a07d-f638503545f9@fake.data.com/operator0
p32
I32
sV3d856796-4d69-459c-9a67-ccae0dfa9703@visitors.fake.data.com/769475c9-d90a-4765-b92d-5e8240688d0c
p33
I33
sV4d688d54-0aa7-4e41-89ac-cc582409bc18@visitors.fake.data.com/e63fb398-449d-4685-af93-e332beb33ef8
p34
I34
sV174d6f63-6818-4852-8087-db3b0aa197e8@fake.data.com/operator0
p35
I35
sV5d86ea99-45c8-413a-80d4-2b1ff2df07bd@visitors.fake.data.com/30bd51e6-b314-4e94-be50-884b9fb41634
p36
I36
s.(dp0
Fnan
I0
sFnan
I37
sV25b2ee5a-8d2f-47c4-9cf3-6beba1dc4be3@fake.data.com/operator0
p1
I13
sV22c03846-6a99-46a8-a098-d431a428d3fd@visitors.fake.data.com/46dc9398-a4fe-4345-8a8c-a207a136646c
p2
I2
sV7ea01afd-28f4-4f8c-a9d1-e97bdeb4df0b@fake.data.com/operator0
p3
I3
sVf3964c3a-d694-4cc2-837c-5187a78de714@fake.data.com/operator0
p4
I4
sV7d79a0ff-f1dc-4702-a166-3c7f3ae3f9df@fake.data.com/operator0
p5
I6
sV5fd2b6e4-5b65-4d1e-b226-10ee9b0b4b37@visitors.fake.data.com/161008b0-1398-42fc-830b-4e05d33059af
p6
I7
sV12990f12-a965-4250-bffc-0e25bbd923e9@fake.data.com/operator0
p7
I8
sV2242122b-72b3-427f-8b1e-13c7c44b5540@fake.data.com/operator0
p8
I9
sV1e5e67db-3b42-438f-b60c-a1b84bbeb8a9@fake.data.com/operator0
p9
I10
sVba84abe1-bae5-4fbb-9470-cc8d505c151e@visitors.fake.data.com/583e4ebc-db21-43e0-9db9-c86dbc995b3b
p10
I11
sVcf486ff2-34e0-4b32-91a5-3e693f0fd5ae@visitors.fake.data.com/f8bed1f7-8fa6-4cd2-b048-9fbad5009597
p11
I12
sVbc1b2ea3-3c03-4303-9653-f63bccfc07b3@visitors.fake.data.com/34fdb384-68b9-4f22-babb-a4580c9f9733
p12
I1
sV3d856796-4d69-459c-9a67-ccae0dfa9703@visitors.fake.data.com/51850318-64fe-40aa-b6cd-00ac5b4cbad3
p13
I14
sVc1c3d169-109e-4015-87b2-24aba15253bb@fake.data.com/operator0
p14
I31
sV8a6389bb-4cf9-4786-9384-1e7e1e26bc32@visitors.fake.data.com/f00301ce-a56b-4da0-9802-fd1a2d6fb949
p15
I15
sV4d688d54-0aa7-4e41-89ac-cc582409bc18@visitors.fake.data.com/de32a8db-4343-43fe-9b64-910857eed1fb
p16
I16
sVab4d6bba-4c49-4974-8e38-1846310231da@visitors.fake.data.com/bce1094c-1324-48e5-95e2-f14525377187
p17
I17
sV3d856796-4d69-459c-9a67-ccae0dfa9703@visitors.fake.data.com/d4aab53c-52dd-452f-8848-ebdc2aeb91ef
p18
I18
sV22c03846-6a99-46a8-a098-d431a428d3fd@visitors.fake.data.com/3f7767e9-3314-4608-9538-24a5107c95b4
p19
I19
sVf73d2710-893b-4325-9764-81b9b2747ba5@visitors.fake.data.com/b63f4fe0-4baa-43b1-95a9-6bc20332abfa
p20
I20
sV4000d69b-b759-44d2-956a-a05e97e6e94d@fake.data.com/operator0
p21
I21
sV5fd2b6e4-5b65-4d1e-b226-10ee9b0b4b37@visitors.fake.data.com/d236d09b-41d9-48e0-88f8-355f5b7a399a
p22
I22
sVe3cd27a1-e082-44b4-9ee1-7f5c0d2d4f9f@visitors.fake.data.com/0df195e8-c828-4a59-8001-63d38edb67a3
p23
I23
sV0479ad2e-06ef-41e5-82e8-c709c0db2918@visitors.fake.data.com/bfe335bc-908b-4e6f-8044-40ec76fb28b0
p24
I24
sV7b023cbb-284f-4013-9a74-1ec2346a5afd@fake.data.com/operator0
p25
I25
sV101ab834-3b2e-4d93-8b81-4da6ea20932d@fake.data.com/operator0
p26
I26
sV2d961835-4eb3-4cca-a411-2041027c3d2a@visitors.fake.data.com/3e617dd8-5171-4080-a002-823b53999c5b
p27
I27
sV31b44d5e-e644-4d69-8be7-eb495049275f@visitors.fake.data.com/9518bf1d-f6d9-4b36-9fad-56d77e508154
p28
I28
sV9f3132d8-b469-4ea0-a1cd-7a82b63ba188@fake.data.com/operator0
p29
I29
sV9cb153e7-df05-4d36-a464-fa9e8235e394@visitors.fake.data.com/d8a19c56-f28c-4727-92c1-c3025e267be3
p30
I30
sVfd9a1ee9-a93a-42c0-aee9-596bc5eb5da2@fake.data.com/operator0
p31
I5
sV998b78e2-a4ea-4ba7-a07d-f638503545f9@fake.data.com/operator0
p32
I32
sV3d856796-4d69-459c-9a67-ccae0dfa9703@visitors.fake.data.com/769475c9-d90a-4765-b92d-5e8240688d0c
p33
I33
sV4d688d54-0aa7-4e41-89ac-cc582409bc18@visitors.fake.data.com/e63fb398-449d-4685-af93-e332beb33ef8
p34
I34
sV174d6f63-6818-4852-8087-db3b0aa197e8@fake.data.com/operator0
p35
I35
sV5d86ea99-45c8-413a-80d4-2b1ff2df07bd@visitors.fake.data.com/30bd51e6-b314-4e94-be50-884b9fb41634
p36
I36
s.(dp0
Fnan
I0
sFnan
I37
sV25b2ee5a-8d2f-47c4-9cf3-6beba1dc4be3@fake.data.com/operator0
p1
I13
sV22c03846-6a99-46a8-a098-d431a428d3fd@visitors.fake.data.com/46dc9398-a4fe-4345-8a8c-a207a136646c
p2
I2
sV7ea01afd-28f4-4f8c-a9d1-e97bdeb4df0b@fake.data.com/operator0
p3
I3
sVf3964c3a-d694-4cc2-837c-5187a78de714@fake.data.com/operator0
p4
I4
sV7d79a0ff-f1dc-4702-a166-3c7f3ae3f9df@fake.data.com/operator0
p5
I6
sV5fd2b6e4-5b65-4d1e-b226-10ee9b0b4b37@visitors.fake.data.com/161008b0-1398-42fc-830b-4e05d33059af
p6
I7
sV12990f12-a965-4250-bffc-0e25bbd923e9@fake.data.com/operator0
p7
I8
sV2242122b-72b3-427f-8b1e-13c7c44b5540@fake.data.com/operator0
p8
I9
sV1e5e67db-3b42-438f-b60c-a1b84bbeb8a9@fake.data.com/operator0
p9
I10
sVba84abe1-bae5-4fbb-9470-cc8d505c151e@visitors.fake.data.com/583e4ebc-db21-43e0-9db9-c86dbc995b3b
p10
I11
sVcf486ff2-34e0-4b32-91a5-3e693f0fd5ae@visitors.fake.data.com/f8bed1f7-8fa6-4cd2-b048-9fbad5009597
p11
I12
sVbc1b2ea3-3c03-4303-9653-f63bccfc07b3@visitors.fake.data.com/34fdb384-68b9-4f22-babb-a4580c9f9733
p12
I1
sV3d856796-4d69-459c-9a67-ccae0dfa9703@visitors.fake.data.com/51850318-64fe-40aa-b6cd-00ac5b4cbad3
p13
I14
sVc1c3d169-109e-4015-87b2-24aba15253bb@fake.data.com/operator0
p14
I31
sV8a6389bb-4cf9-4786-9384-1e7e1e26bc32@visitors.fake.data.com/f00301ce-a56b-4da0-9802-fd1a2d6fb949
p15
I15
sV4d688d54-0aa7-4e41-89ac-cc582409bc18@visitors.fake.data.com/de32a8db-4343-43fe-9b64-910857eed1fb
p16
I16
sVab4d6bba-4c49-4974-8e38-1846310231da@visitors.fake.data.com/bce1094c-1324-48e5-95e2-f14525377187
p17
I17
sV3d856796-4d69-459c-9a67-ccae0dfa9703@visitors.fake.data.com/d4aab53c-52dd-452f-8848-ebdc2aeb91ef
p18
I18
sV22c03846-6a99-46a8-a098-d431a428d3fd@visitors.fake.data.com/3f7767e9-3314-4608-9538-24a5107c95b4
p19
I19
sVf73d2710-893b-4325-9764-81b9b2747ba5@visitors.fake.data.com/b63f4fe0-4baa-43b1-95a9-6bc20332abfa
p20
I20
sV4000d69b-b759-44d2-956a-a05e97e6e94d@fake.data.com/operator0
p21
I21
sV5fd2b6e4-5b65-4d1e-b226-10ee9b0b4b37@visitors.fake.data.com/d236d09b-41d9-48e0-88f8-355f5b7a399a
p22
I22
sVe3cd27a1-e082-44b4-9ee1-7f5c0d2d4f9f@visitors.fake.data.com/0df195e8-c828-4a59-8001-63d38edb67a3
p23
I23
sV0479ad2e-06ef-41e5-82e8-c709c0db2918@visitors.fake.data.com/bfe335bc-908b-4e6f-8044-40ec76fb28b0
p24
I24
sV7b023cbb-284f-4013-9a74-1ec2346a5afd@fake.data.com/operator0
p25
I25
sV101ab834-3b2e-4d93-8b81-4da6ea20932d@fake.data.com/operator0
p26
I26
sV2d961835-4eb3-4cca-a411-2041027c3d2a@visitors.fake.data.com/3e617dd8-5171-4080-a002-823b53999c5b
p27
I27
sV31b44d5e-e644-4d69-8be7-eb495049275f@visitors.fake.data.com/9518bf1d-f6d9-4b36-9fad-56d77e508154
p28
I28
sV9f3132d8-b469-4ea0-a1cd-7a82b63ba188@fake.data.com/operator0
p29
I29
sV9cb153e7-df05-4d36-a464-fa9e8235e394@visitors.fake.data.com/d8a19c56-f28c-4727-92c1-c3025e267be3
p30
I30
sVfd9a1ee9-a93a-42c0-aee9-596bc5eb5da2@fake.data.com/operator0
p31
I5
sV998b78e2-a4ea-4ba7-a07d-f638503545f9@fake.data.com/operator0
p32
I32
sV3d856796-4d69-459c-9a67-ccae0dfa9703@visitors.fake.data.com/769475c9-d90a-4765-b92d-5e8240688d0c
p33
I33
sV4d688d54-0aa7-4e41-89ac-cc582409bc18@visitors.fake.data.com/e63fb398-449d-4685-af93-e332beb33ef8
p34
I34
sV174d6f63-6818-4852-8087-db3b0aa197e8@fake.data.com/operator0
p35
I35
sV5d86ea99-45c8-413a-80d4-2b1ff2df07bd@visitors.fake.data.com/30bd51e6-b314-4e94-be50-884b9fb41634
p36
I36
s.(dp0
Fnan
I0
sFnan
I37
sV25b2ee5a-8d2f-47c4-9cf3-6beba1dc4be3@fake.data.com/operator0
p1
I13
sV22c03846-6a99-46a8-a098-d431a428d3fd@visitors.fake.data.com/46dc9398-a4fe-4345-8a8c-a207a136646c
p2
I2
sV7ea01afd-28f4-4f8c-a9d1-e97bdeb4df0b@fake.data.com/operator0
p3
I3
sVf3964c3a-d694-4cc2-837c-5187a78de714@fake.data.com/operator0
p4
I4
sV7d79a0ff-f1dc-4702-a166-3c7f3ae3f9df@fake.data.com/operator0
p5
I6
sV5fd2b6e4-5b65-4d1e-b226-10ee9b0b4b37@visitors.fake.data.com/161008b0-1398-42fc-830b-4e05d33059af
p6
I7
sV12990f12-a965-4250-bffc-0e25bbd923e9@fake.data.com/operator0
p7
I8
sV2242122b-72b3-427f-8b1e-13c7c44b5540@fake.data.com/operator0
p8
I9
sV1e5e67db-3b42-438f-b60c-a1b84bbeb8a9@fake.data.com/operator0
p9
I10
sVba84abe1-bae5-4fbb-9470-cc8d505c151e@visitors.fake.data.com/583e4ebc-db21-43e0-9db9-c86dbc995b3b
p10
I11
sVcf486ff2-34e0-4b32-91a5-3e693f0fd5ae@visitors.fake.data.com/f8bed1f7-8fa6-4cd2-b048-9fbad5009597
p11
I12
sVbc1b2ea3-3c03-4303-9653-f63bccfc07b3@visitors.fake.data.com/34fdb384-68b9-4f22-babb-a4580c9f9733
p12
I1
sV3d856796-4d69-459c-9a67-ccae0dfa9703@visitors.fake.data.com/51850318-64fe-40aa-b6cd-00ac5b4cbad3
p13
I14
sVc1c3d169-109e-4015-87b2-24aba15253bb@fake.data.com/operator0
p14
I31
sV8a6389bb-4cf9-4786-9384-1e7e1e26bc32@visitors.fake.data.com/f00301ce-a56b-4da0-9802-fd1a2d6fb949
p15
I15
sV4d688d54-0aa7-4e41-89ac-cc582409bc18@visitors.fake.data.com/de32a8db-4343-43fe-9b64-910857eed1fb
p16
I16
sVab4d6bba-4c49-4974-8e38-1846310231da@visitors.fake.data.com/bce1094c-1324-48e5-95e2-f14525377187
p17
I17
sV3d856796-4d69-459c-9a67-ccae0dfa9703@visitors.fake.data.com/d4aab53c-52dd-452f-8848-ebdc2aeb91ef
p18
I18
sV22c03846-6a99-46a8-a098-d431a428d3fd@visitors.fake.data.com/3f7767e9-3314-4608-9538-24a5107c95b4
p19
I19
sVf73d2710-893b-4325-9764-81b9b2747ba5@visitors.fake.data.com/b63f4fe0-4baa-43b1-95a9-6bc20332abfa
p20
I20
sV4000d69b-b759-44d2-956a-a05e97e6e94d@fake.data.com/operator0
p21
I21
sV5fd2b6e4-5b65-4d1e-b226-10ee9b0b4b37@visitors.fake.data.com/d236d09b-41d9-48e0-88f8-355f5b7a399a
p22
I22
sVe3cd27a1-e082-44b4-9ee1-7f5c0d2d4f9f@visitors.fake.data.com/0df195e8-c828-4a59-8001-63d38edb67a3
p23
I23
sV0479ad2e-06ef-41e5-82e8-c709c0db2918@visitors.fake.data.com/bfe335bc-908b-4e6f-8044-40ec76fb28b0
p24
I24
sV7b023cbb-284f-4013-9a74-1ec2346a5afd@fake.data.com/operator0
p25
I25
sV101ab834-3b2e-4d93-8b81-4da6ea20932d@fake.data.com/operator0
p26
I26
sV2d961835-4eb3-4cca-a411-2041027c3d2a@visitors.fake.data.com/3e617dd8-5171-4080-a002-823b53999c5b
p27
I27
sV31b44d5e-e644-4d69-8be7-eb495049275f@visitors.fake.data.com/9518bf1d-f6d9-4b36-9fad-56d77e508154
p28
I28
sV9f3132d8-b469-4ea0-a1cd-7a82b63ba188@fake.data.com/operator0
p29
I29
sV9cb153e7-df05-4d36-a464-fa9e8235e394@visitors.fake.data.com/d8a19c56-f28c-4727-92c1-c3025e267be3
p30
I30
sVfd9a1ee9-a93a-42c0-aee9-596bc5eb5da2@fake.data.com/operator0
p31
I5
sV998b78e2-a4ea-4ba7-a07d-f638503545f9@fake.data.com/operator0
p32
I32
sV3d856796-4d69-459c-9a67-ccae0dfa9703@visitors.fake.data.com/769475c9-d90a-4765-b92d-5e8240688d0c
p33
I33
sV4d688d54-0aa7-4e41-89ac-cc582409bc18@visitors.fake.data.com/e63fb398-449d-4685-af93-e332beb33ef8
p34
I34
sV174d6f63-6818-4852-8087-db3b0aa197e8@fake.data.com/operator0
p35
I35
sV5d86ea99-45c8-413a-80d4-2b1ff2df07bd@visitors.fake.data.com/30bd51e6-b314-4e94-be50-884b9fb41634
p36
I36
s.(dp0
Fnan
I0
sFnan
I37
sV25b2ee5a-8d2f-47c4-9cf3-6beba1dc4be3@fake.data.com/operator0
p1
I13
sV22c03846-6a99-46a8-a098-d431a428d3fd@visitors.fake.data.com/46dc9398-a4fe-4345-8a8c-a207a136646c
p2
I2
sV7ea01afd-28f4-4f8c-a9d1-e97bdeb4df0b@fake.data.com/operator0
p3
I3
sVf3964c3a-d694-4cc2-837c-5187a78de714@fake.data.com/operator0
p4
I4
sV7d79a0ff-f1dc-4702-a166-3c7f3ae3f9df@fake.data.com/operator0
p5
I6
sV5fd2b6e4-5b65-4d1e-b226-10ee9b0b4b37@visitors.fake.data.com/161008b0-1398-42fc-830b-4e05d33059af
p6
I7
sV12990f12-a965-4250-bffc-0e25bbd923e9@fake.data.com/operator0
p7
I8
sV2242122b-72b3-427f-8b1e-13c7c44b5540@fake.data.com/operator0
p8
I9
sV1e5e67db-3b42-438f-b60c-a1b84bbeb8a9@fake.data.com/operator0
p9
I10
sVba84abe1-bae5-4fbb-9470-cc8d505c151e@visitors.fake.data.com/583e4ebc-db21-43e0-9db9-c86dbc995b3b
p10
I11
sVcf486ff2-34e0-4b32-91a5-3e693f0fd5ae@visitors.fake.data.com/f8bed1f7-8fa6-4cd2-b048-9fbad5009597
p11
I12
sVbc1b2ea3-3c03-4303-9653-f63bccfc07b3@visitors.fake.data.com/34fdb384-68b9-4f22-babb-a4580c9f9733
p12
I1
sV3d856796-4d69-459c-9a67-ccae0dfa9703@visitors.fake.data.com/51850318-64fe-40aa-b6cd-00ac5b4cbad3
p13
I14
sVc1c3d169-109e-4015-87b2-24aba15253bb@fake.data.com/operator0
p14
I31
sV8a6389bb-4cf9-4786-9384-1e7e1e26bc32@visitors.fake.data.com/f00301ce-a56b-4da0-9802-fd1a2d6fb949
p15
I15
sV4d688d54-0aa7-4e41-89ac-cc582409bc18@visitors.fake.data.com/de32a8db-4343-43fe-9b64-910857eed1fb
p16
I16
sVab4d6bba-4c49-4974-8e38-1846310231da@visitors.fake.data.com/bce1094c-1324-48e5-95e2-f14525377187
p17
I17
sV3d856796-4d69-459c-9a67-ccae0dfa9703@visitors.fake.data.com/d4aab53c-52dd-452f-8848-ebdc2aeb91ef
p18
I18
sV22c03846-6a99-46a8-a098-d431a428d3fd@visitors.fake.data.com/3f7767e9-3314-4608-9538-24a5107c95b4
p19
I19
sVf73d2710-893b-4325-9764-81b9b2747ba5@visitors.fake.data.com/b63f4fe0-4baa-43b1-95a9-6bc20332abfa
p20
I20
sV4000d69b-b759-44d2-956a-a05e97e6e94d@fake.data.com/operator0
p21
I21
sV5fd2b6e4-5b65-4d1e-b226-10ee9b0b4b37@visitors.fake.data.com/d236d09b-41d9-48e0-88f8-355f5b7a399a
p22
I22
sVe3cd27a1-e082-44b4-9ee1-7f5c0d2d4f9f@visitors.fake.data.com/0df195e8-c828-4a59-8001-63d38edb67a3
p23
I23
sV0479ad2e-06ef-41e5-82e8-c709c0db2918@visitors.fake.data.com/bfe335bc-908b-4e6f-8044-40ec76fb28b0
p24
I24
sV7b023cbb-284f-4013-9a74-1ec2346a5afd@fake.data.com/operator0
p25
I25
sV101ab834-3b2e-4d93-8b81-4da6ea20932d@fake.data.com/operator0
p26
I26
sV2d961835-4eb3-4cca-a411-2041027c3d2a@visitors.fake.data.com/3e617dd8-5171-4080-a002-823b53999c5b
p27
I27
sV31b44d5e-e644-4d69-8be7-eb495049275f@visitors.fake.data.com/9518bf1d-f6d9-4b36-9fad-56d77e508154
p28
I28
sV9f3132d8-b469-4ea0-a1cd-7a82b63ba188@fake.data.com/operator0
p29
I29
sV9cb153e7-df05-4d36-a464-fa9e8235e394@visitors.fake.data.com/d8a19c56-f28c-4727-92c1-c3025e267be3
p30
I30
sVfd9a1ee9-a93a-42c0-aee9-596bc5eb5da2@fake.data.com/operator0
p31
I5
sV998b78e2-a4ea-4ba7-a07d-f638503545f9@fake.data.com/operator0
p32
I32
sV3d856796-4d69-459c-9a67-ccae0dfa9703@visitors.fake.data.com/769475c9-d90a-4765-b92d-5e8240688d0c
p33
I33
sV4d688d54-0aa7-4e41-89ac-cc582409bc18@visitors.fake.data.com/e63fb398-449d-4685-af93-e332beb33ef8
p34
I34
sV174d6f63-6818-4852-8087-db3b0aa197e8@fake.data.com/operator0
p35
I35
sV5d86ea99-45c8-413a-80d4-2b1ff2df07bd@visitors.fake.data.com/30bd51e6-b314-4e94-be50-884b9fb41634
p36
I36
s.(dp0
Fnan
I0
sFnan
I37
sV25b2ee5a-8d2f-47c4-9cf3-6beba1dc4be3@fake.data.com/operator0
p1
I13
sV22c03846-6a99-46a8-a098-d431a428d3fd@visitors.fake.data.com/46dc9398-a4fe-4345-8a8c-a207a136646c
p2
I2
sV7ea01afd-28f4-4f8c-a9d1-e97bdeb4df0b@fake.data.com/operator0
p3
I3
sVf3964c3a-d694-4cc2-837c-5187a78de714@fake.data.com/operator0
p4
I4
sV7d79a0ff-f1dc-4702-a166-3c7f3ae3f9df@fake.data.com/operator0
p5
I6
sV5fd2b6e4-5b65-4d1e-b226-10ee9b0b4b37@visitors.fake.data.com/161008b0-1398-42fc-830b-4e05d33059af
p6
I7
sV12990f12-a965-4250-bffc-0e25bbd923e9@fake.data.com/operator0
p7
I8
sV2242122b-72b3-427f-8b1e-13c7c44b5540@fake.data.com/operator0
p8
I9
sV1e5e67db-3b42-438f-b60c-a1b84bbeb8a9@fake.data.com/operator0
p9
I10
sVba84abe1-bae5-4fbb-9470-cc8d505c151e@visitors.fake.data.com/583e4ebc-db21-43e0-9db9-c86dbc995b3b
p10
I11
sVcf486ff2-34e0-4b32-91a5-3e693f0fd5ae@visitors.fake.data.com/f8bed1f7-8fa6-4cd2-b048-9fbad5009597
p11
I12
sVbc1b2ea3-3c03-4303-9653-f63bccfc07b3@visitors.fake.data.com/34fdb384-68b9-4f22-babb-a4580c9f9733
p12
I1
sV3d856796-4d69-459c-9a67-ccae0dfa9703@visitors.fake.data.com/51850318-64fe-40aa-b6cd-00ac5b4cbad3
p13
I14
sVc1c3d169-109e-4015-87b2-24aba15253bb@fake.data.com/operator0
p14
I31
sV8a6389bb-4cf9-4786-9384-1e7e1e26bc32@visitors.fake.data.com/f00301ce-a56b-4da0-9802-fd1a2d6fb949
p15
I15
sV4d688d54-0aa7-4e41-89ac-cc582409bc18@visitors.fake.data.com/de32a8db-4343-43fe-9b64-910857eed1fb
p16
I16
sVab4d6bba-4c49-4974-8e38-1846310231da@visitors.fake.data.com/bce1094c-1324-48e5-95e2-f14525377187
p17
I17
sV3d856796-4d69-459c-9a67-ccae0dfa9703@visitors.fake.data.com/d4aab53c-52dd-452f-8848-ebdc2aeb91ef
p18
I18
sV22c03846-6a99-46a8-a098-d431a428d3fd@visitors.fake.data.com/3f7767e9-3314-4608-9538-24a5107c95b4
p19
I19
sVf73d2710-893b-4325-9764-81b9b2747ba5@visitors.fake.data.com/b63f4fe0-4baa-43b1-95a9-6bc20332abfa
p20
I20
sV4000d69b-b759-44d2-956a-a05e97e6e94d@fake.data.com/operator0
p21
I21
sV5fd2b6e4-5b65-4d1e-b226-10ee9b0b4b37@visitors.fake.data.com/d236d09b-41d9-48e0-88f8-355f5b7a399a
p22
I22
sVe3cd27a1-e082-44b4-9ee1-7f5c0d2d4f9f@visitors.fake.data.com/0df195e8-c828-4a59-8001-63d38edb67a3
p23
I23
sV0479ad2e-06ef-41e5-82e8-c709c0db2918@visitors.fake.data.com/bfe335bc-908b-4e6f-8044-40ec76fb28b0
p24
I24
sV7b023cbb-284f-4013-9a74-1ec2346a5afd@fake.data.com/operator0
p25
I25
sV101ab834-3b2e-4d93-8b81-4da6ea20932d@fake.data.com/operator0
p26
I26
sV2d961835-4eb3-4cca-a411-2041027c3d2a@visitors.fake.data.com/3e617dd8-5171-4080-a002-823b53999c5b
p27
I27
sV31b44d5e-e644-4d69-8be7-eb495049275f@visitors.fake.data.com/9518bf1d-f6d9-4b36-9fad-56d77e508154
p28
I28
sV9f3132d8-b469-4ea0-a1cd-7a82b63ba188@fake.data.com/operator0
p29
I29
sV9cb153e7-df05-4d36-a464-fa9e8235e394@visitors.fake.data.com/d8a19c56-f28c-4727-92c1-c3025e267be3
p30
I30
sVfd9a1ee9-a93a-42c0-aee9-596bc5eb5da2@fake.data.com/operator0
p31
I5
sV998b78e2-a4ea-4ba7-a07d-f638503545f9@fake.data.com/operator0
p32
I32
sV3d856796-4d69-459c-9a67-ccae0dfa9703@visitors.fake.data.com/769475c9-d90a-4765-b92d-5e8240688d0c
p33
I33
sV4d688d54-0aa7-4e41-89ac-cc582409bc18@visitors.fake.data.com/e63fb398-449d-4685-af93-e332beb33ef8
p34
I34
sV174d6f63-6818-4852-8087-db3b0aa197e8@fake.data.com/operator0
p35
I35
sV5d86ea99-45c8-413a-80d4-2b1ff2df07bd@visitors.fake.data.com/30bd51e6-b314-4e94-be50-884b9fb41634
p36
I36
s.(dp0
Fnan
I0
sFnan
I37
sV25b2ee5a-8d2f-47c4-9cf3-6beba1dc4be3@fake.data.com/operator0
p1
I13
sV22c03846-6a99-46a8-a098-d431a428d3fd@visitors.fake.data.com/46dc9398-a4fe-4345-8a8c-a207a136646c
p2
I2
sV7ea01afd-28f4-4f8c-a9d1-e97bdeb4df0b@fake.data.com/operator0
p3
I3
sVf3964c3a-d694-4cc2-837c-5187a78de714@fake.data.com/operator0
p4
I4
sV7d79a0ff-f1dc-4702-a166-3c7f3ae3f9df@fake.data.com/operator0
p5
I6
sV5fd2b6e4-5b65-4d1e-b226-10ee9b0b4b37@visitors.fake.data.com/161008b0-1398-42fc-830b-4e05d33059af
p6
I7
sV12990f12-a965-4250-bffc-0e25bbd923e9@fake.data.com/operator0
p7
I8
sV2242122b-72b3-427f-8b1e-13c7c44b5540@fake.data.com/operator0
p8
I9
sV1e5e67db-3b42-438f-b60c-a1b84bbeb8a9@fake.data.com/operator0
p9
I10
sVba84abe1-bae5-4fbb-9470-cc8d505c151e@visitors.fake.data.com/583e4ebc-db21-43e0-9db9-c86dbc995b3b
p10
I11
sVcf486ff2-34e0-4b32-91a5-3e693f0fd5ae@visitors.fake.data.com/f8bed1f7-8fa6-4cd2-b048-9fbad5009597
p11
I12
sVbc1b2ea3-3c03-4303-9653-f63bccfc07b3@visitors.fake.data.com/34fdb384-68b9-4f22-babb-a4580c9f9733
p12
I1
sV3d856796-4d69-459c-9a67-ccae0dfa9703@visitors.fake.data.com/51850318-64fe-40aa-b6cd-00ac5b4cbad3
p13
I14
sVc1c3d169-109e-4015-87b2-24aba15253bb@fake.data.com/operator0
p14
I31
sV8a6389bb-4cf9-4786-9384-1e7e1e26bc32@visitors.fake.data.com/f00301ce-a56b-4da0-9802-fd1a2d6fb949
p15
I15
sV4d688d54-0aa7-4e41-89ac-cc582409bc18@visitors.fake.data.com/de32a8db-4343-43fe-9b64-910857eed1fb
p16
I16
sVab4d6bba-4c49-4974-8e38-1846310231da@visitors.fake.data.com/bce1094c-1324-48e5-95e2-f14525377187
p17
I17
sV3d856796-4d69-459c-9a67-ccae0dfa9703@visitors.fake.data.com/d4aab53c-52dd-452f-8848-ebdc2aeb91ef
p18
I18
sV22c03846-6a99-46a8-a098-d431a428d3fd@visitors.fake.data.com/3f7767e9-3314-4608-9538-24a5107c95b4
p19
I19
sVf73d2710-893b-4325-9764-81b9b2747ba5@visitors.fake.data.com/b63f4fe0-4baa-43b1-95a9-6bc20332abfa
p20
I20
sV4000d69b-b759-44d2-956a-a05e97e6e94d@fake.data.com/operator0
p21
I21
sV5fd2b6e4-5b65-4d1e-b226-10ee9b0b4b37@visitors.fake.data.com/d236d09b-41d9-48e0-88f8-355f5b7a399a
p22
I22
sVe3cd27a1-e082-44b4-9ee1-7f5c0d2d4f9f@visitors.fake.data.com/0df195e8-c828-4a59-8001-63d38edb67a3
p23
I23
sV0479ad2e-06ef-41e5-82e8-c709c0db2918@visitors.fake.data.com/bfe335bc-908b-4e6f-8044-40ec76fb28b0
p24
I24
sV7b023cbb-284f-4013-9a74-1ec2346a5afd@fake.data.com/operator0
p25
I25
sV101ab834-3b2e-4d93-8b81-4da6ea20932d@fake.data.com/operator0
p26
I26
sV2d961835-4eb3-4cca-a411-2041027c3d2a@visitors.fake.data.com/3e617dd8-5171-4080-a002-823b53999c5b
p27
I27
sV31b44d5e-e644-4d69-8be7-eb495049275f@visitors.fake.data.com/9518bf1d-f6d9-4b36-9fad-56d77e508154
p28
I28
sV9f3132d8-b469-4ea0-a1cd-7a82b63ba188@fake.data.com/operator0
p29
I29
sV9cb153e7-df05-4d36-a464-fa9e8235e394@visitors.fake.data.com/d8a19c56-f28c-4727-92c1-c3025e267be3
p30
I30
sVfd9a1ee9-a93a-42c0-aee9-596bc5eb5da2@fake.data.com/operator0
p31
I5
sV998b78e2-a4ea-4ba7-a07d-f638503545f9@fake.data.com/operator0
p32
I32
sV3d856796-4d69-459c-9a67-ccae0dfa9703@visitors.fake.data.com/769475c9-d90a-4765-b92d-5e8240688d0c
p33
I33
sV4d688d54-0aa7-4e41-89ac-cc582409bc18@visitors.fake.data.com/e63fb398-449d-4685-af93-e332beb33ef8
p34
I34
sV174d6f63-6818-4852-8087-db3b0aa197e8@fake.data.com/operator0
p35
I35
sV5d86ea99-45c8-413a-80d4-2b1ff2df07bd@visitors.fake.data.com/30bd51e6-b314-4e94-be50-884b9fb41634
p36
I36
s.(dp0
Fnan
I0
sFnan
I37
sV25b2ee5a-8d2f-47c4-9cf3-6beba1dc4be3@fake.data.com/operator0
p1
I13
sV22c03846-6a99-46a8-a098-d431a428d3fd@visitors.fake.data.com/46dc9398-a4fe-4345-8a8c-a207a136646c
p2
I2
sV7ea01afd-28f4-4f8c-a9d1-e97bdeb4df0b@fake.data.com/operator0
p3
I3
sVf3964c3a-d694-4cc2-837c-5187a78de714@fake.data.com/operator0
p4
I4
sV7d79a0ff-f1dc-4702-a166-3c7f3ae3f9df@fake.data.com/operator0
p5
I6
sV5fd2b6e4-5b65-4d1e-b226-10ee9b0b4b37@visitors.fake.data.com/161008b0-1398-42fc-830b-4e05d33059af
p6
I7
sV12990f12-a965-4250-bffc-0e25bbd923e9@fake.data.com/operator0
p7
I8
sV2242122b-72b3-427f-8b1e-13c7c44b5540@fake.data.com/operator0
p8
I9
sV1e5e67db-3b42-438f-b60c-a1b84bbeb8a9@fake.data.com/operator0
p9
I10
sVba84abe1-bae5-4fbb-9470-cc8d505c151e@visitors.fake.data.com/583e4ebc-db21-43e0-9db9-c86dbc995b3b
p10
I11
sVcf486ff2-34e0-4b32-91a5-3e693f0fd5ae@visitors.fake.data.com/f8bed1f7-8fa6-4cd2-b048-9fbad5009597
p11
I12
sVbc1b2ea3-3c03-4303-9653-f63bccfc07b3@visitors.fake.data.com/34fdb384-68b9-4f22-babb-a4580c9f9733
p12
I1
sV3d856796-4d69-459c-9a67-ccae0dfa9703@visitors.fake.data.com/51850318-64fe-40aa-b6cd-00ac5b4cbad3
p13
I14
sVc1c3d169-109e-4015-87b2-24aba15253bb@fake.data.com/operator0
p14
I31
sV8a6389bb-4cf9-4786-9384-1e7e1e26bc32@visitors.fake.data.com/f00301ce-a56b-4da0-9802-fd1a2d6fb949
p15
I15
sV4d688d54-0aa7-4e41-89ac-cc582409bc18@visitors.fake.data.com/de32a8db-4343-43fe-9b64-910857eed1fb
p16
I16
sVab4d6bba-4c49-4974-8e38-1846310231da@visitors.fake.data.com/bce1094c-1324-48e5-95e2-f14525377187
p17
I17
sV3d856796-4d69-459c-9a67-ccae0dfa9703@visitors.fake.data.com/d4aab53c-52dd-452f-8848-ebdc2aeb91ef
p18
I18
sV22c03846-6a99-46a8-a098-d431a428d3fd@visitors.fake.data.com/3f7767e9-3314-4608-9538-24a5107c95b4
p19
I19
sVf73d2710-893b-4325-9764-81b9b2747ba5@visitors.fake.data.com/b63f4fe0-4baa-43b1-95a9-6bc20332abfa
p20
I20
sV4000d69b-b759-44d2-956a-a05e97e6e94d@fake.data.com/operator0
p21
I21
sV5fd2b6e4-5b65-4d1e-b226-10ee9b0b4b37@visitors.fake.data.com/d236d09b-41d9-48e0-88f8-355f5b7a399a
p22
I22
sVe3cd27a1-e082-44b4-9ee1-7f5c0d2d4f9f@visitors.fake.data.com/0df195e8-c828-4a59-8001-63d38edb67a3
p23
I23
sV0479ad2e-06ef-41e5-82e8-c709c0db2918@visitors.fake.data.com/bfe335bc-908b-4e6f-8044-40ec76fb28b0
p24
I24
sV7b023cbb-284f-4013-9a74-1ec2346a5afd@fake.data.com/operator0
p25
I25
sV101ab834-3b2e-4d93-8b81-4da6ea20932d@fake.data.com/operator0
p26
I26
sV2d961835-4eb3-4cca-a411-2041027c3d2a@visitors.fake.data.com/3e617dd8-5171-4080-a002-823b53999c5b
p27
I27
sV31b44d5e-e644-4d69-8be7-eb495049275f@visitors.fake.data.com/9518bf1d-f6d9-4b36-9fad-56d77e508154
p28
I28
sV9f3132d8-b469-4ea0-a1cd-7a82b63ba188@fake.data.com/operator0
p29
I29
sV9cb153e7-df05-4d36-a464-fa9e8235e394@visitors.fake.data.com/d8a19c56-f28c-4727-92c1-c3025e267be3
p30
I30
sVfd9a1ee9-a93a-42c0-aee9-596bc5eb5da2@fake.data.com/operator0
p31
I5
sV998b78e2-a4ea-4ba7-a07d-f638503545f9@fake.data.com/operator0
p32
I32
sV3d856796-4d69-459c-9a67-ccae0dfa9703@visitors.fake.data.com/769475c9-d90a-4765-b92d-5e8240688d0c
p33
I33
sV4d688d54-0aa7-4e41-89ac-cc582409bc18@visitors.fake.data.com/e63fb398-449d-4685-af93-e332beb33ef8
p34
I34
sV174d6f63-6818-4852-8087-db3b0aa197e8@fake.data.com/operator0
p35
I35
sV5d86ea99-45c8-413a-80d4-2b1ff2df07bd@visitors.fake.data.com/30bd51e6-b314-4e94-be50-884b9fb41634
p36
I36
s.(dp0
Fnan
I0
sFnan
I37
sV25b2ee5a-8d2f-47c4-9cf3-6beba1dc4be3@fake.data.com/operator0
p1
I13
sV22c03846-6a99-46a8-a098-d431a428d3fd@visitors.fake.data.com/46dc9398-a4fe-4345-8a8c-a207a136646c
p2
I2
sV7ea01afd-28f4-4f8c-a9d1-e97bdeb4df0b@fake.data.com/operator0
p3
I3
sVf3964c3a-d694-4cc2-837c-5187a78de714@fake.data.com/operator0
p4
I4
sV7d79a0ff-f1dc-4702-a166-3c7f3ae3f9df@fake.data.com/operator0
p5
I6
sV5fd2b6e4-5b65-4d1e-b226-10ee9b0b4b37@visitors.fake.data.com/161008b0-1398-42fc-830b-4e05d33059af
p6
I7
sV12990f12-a965-4250-bffc-0e25bbd923e9@fake.data.com/operator0
p7
I8
sV2242122b-72b3-427f-8b1e-13c7c44b5540@fake.data.com/operator0
p8
I9
sV1e5e67db-3b42-438f-b60c-a1b84bbeb8a9@fake.data.com/operator0
p9
I10
sVba84abe1-bae5-4fbb-9470-cc8d505c151e@visitors.fake.data.com/583e4ebc-db21-43e0-9db9-c86dbc995b3b
p10
I11
sVcf486ff2-34e0-4b32-91a5-3e693f0fd5ae@visitors.fake.data.com/f8bed1f7-8fa6-4cd2-b048-9fbad5009597
p11
I12
sVbc1b2ea3-3c03-4303-9653-f63bccfc07b3@visitors.fake.data.com/34fdb384-68b9-4f22-babb-a4580c9f9733
p12
I1
sV3d856796-4d69-459c-9a67-ccae0dfa9703@visitors.fake.data.com/51850318-64fe-40aa-b6cd-00ac5b4cbad3
p13
I14
sVc1c3d169-109e-4015-87b2-24aba15253bb@fake.data.com/operator0
p14
I31
sV8a6389bb-4cf9-4786-9384-1e7e1e26bc32@visitors.fake.data.com/f00301ce-a56b-4da0-9802-fd1a2d6fb949
p15
I15
sV4d688d54-0aa7-4e41-89ac-cc582409bc18@visitors.fake.data.com/de32a8db-4343-43fe-9b64-910857eed1fb
p16
I16
sVab4d6bba-4c49-4974-8e38-1846310231da@visitors.fake.data.com/bce1094c-1324-48e5-95e2-f14525377187
p17
I17
sV3d856796-4d69-459c-9a67-ccae0dfa9703@visitors.fake.data.com/d4aab53c-52dd-452f-8848-ebdc2aeb91ef
p18
I18
sV22c03846-6a99-46a8-a098-d431a428d3fd@visitors.fake.data.com/3f7767e9-3314-4608-9538-24a5107c95b4
p19
I19
sVf73d2710-893b-4325-9764-81b9b2747ba5@visitors.fake.data.com/b63f4fe0-4baa-43b1-95a9-6bc20332abfa
p20
I20
sV4000d69b-b759-44d2-956a-a05e97e6e94d@fake.data.com/operator0
p21
I21
sV5fd2b6e4-5b65-4d1e-b226-10ee9b0b4b37@visitors.fake.data.com/d236d09b-41d9-48e0-88f8-355f5b7a399a
p22
I22
sVe3cd27a1-e082-44b4-9ee1-7f5c0d2d4f9f@visitors.fake.data.com/0df195e8-c828-4a59-8001-63d38edb67a3
p23
I23
sV0479ad2e-06ef-41e5-82e8-c709c0db2918@visitors.fake.data.com/bfe335bc-908b-4e6f-8044-40ec76fb28b0
p24
I24
sV7b023cbb-284f-4013-9a74-1ec2346a5afd@fake.data.com/operator0
p25
I25
sV101ab834-3b2e-4d93-8b81-4da6ea20932d@fake.data.com/operator0
p26
I26
sV2d961835-4eb3-4cca-a411-2041027c3d2a@visitors.fake.data.com/3e617dd8-5171-4080-a002-823b53999c5b
p27
I27
sV31b44d5e-e644-4d69-8be7-eb495049275f@visitors.fake.data.com/9518bf1d-f6d9-4b36-9fad-56d77e508154
p28
I28
sV9f3132d8-b469-4ea0-a1cd-7a82b63ba188@fake.data.com/operator0
p29
I29
sV9cb153e7-df05-4d36-a464-fa9e8235e394@visitors.fake.data.com/d8a19c56-f28c-4727-92c1-c3025e267be3
p30
I30
sVfd9a1ee9-a93a-42c0-aee9-596bc5eb5da2@fake.data.com/operator0
p31
I5
sV998b78e2-a4ea-4ba7-a07d-f638503545f9@fake.data.com/operator0
p32
I32
sV3d856796-4d69-459c-9a67-ccae0dfa9703@visitors.fake.data.com/769475c9-d90a-4765-b92d-5e8240688d0c
p33
I33
sV4d688d54-0aa7-4e41-89ac-cc582409bc18@visitors.fake.data.com/e63fb398-449d-4685-af93-e332beb33ef8
p34
I34
sV174d6f63-6818-4852-8087-db3b0aa197e8@fake.data.com/operator0
p35
I35
sV5d86ea99-45c8-413a-80d4-2b1ff2df07bd@visitors.fake.data.com/30bd51e6-b314-4e94-be50-884b9fb41634
p36
I36
s.(dp0
Fnan
I0
sFnan
I37
sV25b2ee5a-8d2f-47c4-9cf3-6beba1dc4be3@fake.data.com/operator0
p1
I13
sV22c03846-6a99-46a8-a098-d431a428d3fd@visitors.fake.data.com/46dc9398-a4fe-4345-8a8c-a207a136646c
p2
I2
sV7ea01afd-28f4-4f8c-a9d1-e97bdeb4df0b@fake.data.com/operator0
p3
I3
sVf3964c3a-d694-4cc2-837c-5187a78de714@fake.data.com/operator0
p4
I4
sV7d79a0ff-f1dc-4702-a166-3c7f3ae3f9df@fake.data.com/operator0
p5
I6
sV5fd2b6e4-5b65-4d1e-b226-10ee9b0b4b37@visitors.fake.data.com/161008b0-1398-42fc-830b-4e05d33059af
p6
I7
sV12990f12-a965-4250-bffc-0e25bbd923e9@fake.data.com/operator0
p7
I8
sV2242122b-72b3-427f-8b1e-13c7c44b5540@fake.data.com/operator0
p8
I9
sV1e5e67db-3b42-438f-b60c-a1b84bbeb8a9@fake.data.com/operator0
p9
I10
sVba84abe1-bae5-4fbb-9470-cc8d505c151e@visitors.fake.data.com/583e4ebc-db21-43e0-9db9-c86dbc995b3b
p10
I11
sVcf486ff2-34e0-4b32-91a5-3e693f0fd5ae@visitors.fake.data.com/f8bed1f7-8fa6-4cd2-b048-9fbad5009597
p11
I12
sVbc1b2ea3-3c03-4303-9653-f63bccfc07b3@visitors.fake.data.com/34fdb384-68b9-4f22-babb-a4580c9f9733
p12
I1
sV3d856796-4d69-459c-9a67-ccae0dfa9703@visitors.fake.data.com/51850318-64fe-40aa-b6cd-00ac5b4cbad3
p13
I14
sVc1c3d169-109e-4015-87b2-24aba15253bb@fake.data.com/operator0
p14
I31
sV8a6389bb-4cf9-4786-9384-1e7e1e26bc32@visitors.fake.data.com/f00301ce-a56b-4da0-9802-fd1a2d6fb949
p15
I15
sV4d688d54-0aa7-4e41-89ac-cc582409bc18@visitors.fake.data.com/de32a8db-4343-43fe-9b64-910857eed1fb
p16
I16
sVab4d6bba-4c49-4974-8e38-1846310231da@visitors.fake.data.com/bce1094c-1324-48e5-95e2-f14525377187
p17
I17
sV3d856796-4d69-459c-9a67-ccae0dfa9703@visitors.fake.data.com/d4aab53c-52dd-452f-8848-ebdc2aeb91ef
p18
I18
sV22c03846-6a99-46a8-a098-d431a428d3fd@visitors.fake.data.com/3f7767e9-3314-4608-9538-24a5107c95b4
p19
I19
sVf73d2710-893b-4325-9764-81b9b2747ba5@visitors.fake.data.com/b63f4fe0-4baa-43b1-95a9-6bc20332abfa
p20
I20
sV4000d69b-b759-44d2-956a-a05e97e6e94d@fake.data.com/operator0
p21
I21
sV5fd2b6e4-5b65-4d1e-b226-10ee9b0b4b37@visitors.fake.data.com/d236d09b-41d9-48e0-88f8-355f5b7a399a
p22
I22
sVe3cd27a1-e082-44b4-9ee1-7f5c0d2d4f9f@visitors.fake.data.com/0df195e8-c828-4a59-8001-63d38edb67a3
p23
I23
sV0479ad2e-06ef-41e5-82e8-c709c0db2918@visitors.fake.data.com/bfe335bc-908b-4e6f-8044-40ec76fb28b0
p24
I24
sV7b023cbb-284f-4013-9a74-1ec2346a5afd@fake.data.com/operator0
p25
I25
sV101ab834-3b2e-4d93-8b81-4da6ea20932d@fake.data.com/operator0
p26
I26
sV2d961835-4eb3-4cca-a411-2041027c3d2a@visitors.fake.data.com/3e617dd8-5171-4080-a002-823b53999c5b
p27
I27
sV31b44d5e-e644-4d69-8be7-eb495049275f@visitors.fake.data.com/9518bf1d-f6d9-4b36-9fad-56d77e508154
p28
I28
sV9f3132d8-b469-4ea0-a1cd-7a82b63ba188@fake.data.com/operator0
p29
I29
sV9cb153e7-df05-4d36-a464-fa9e8235e394@visitors.fake.data.com/d8a19c56-f28c-4727-92c1-c3025e267be3
p30
I30
sVfd9a1ee9-a93a-42c0-aee9-596bc5eb5da2@fake.data.com/operator0
p31
I5
sV998b78e2-a4ea-4ba7-a07d-f638503545f9@fake.data.com/operator0
p32
I32
sV3d856796-4d69-459c-9a67-ccae0dfa9703@visitors.fake.data.com/769475c9-d90a-4765-b92d-5e8240688d0c
p33
I33
sV4d688d54-0aa7-4e41-89ac-cc582409bc18@visitors.fake.data.com/e63fb398-449d-4685-af93-e332beb33ef8
p34
I34
sV174d6f63-6818-4852-8087-db3b0aa197e8@fake.data.com/operator0
p35
I35
sV5d86ea99-45c8-413a-80d4-2b1ff2df07bd@visitors.fake.data.com/30bd51e6-b314-4e94-be50-884b9fb41634
p36
I36
s.(dp0
Fnan
I0
sFnan
I37
sV25b2ee5a-8d2f-47c4-9cf3-6beba1dc4be3@fake.data.com/operator0
p1
I13
sV22c03846-6a99-46a8-a098-d431a428d3fd@visitors.fake.data.com/46dc9398-a4fe-4345-8a8c-a207a136646c
p2
I2
sV7ea01afd-28f4-4f8c-a9d1-e97bdeb4df0b@fake.data.com/operator0
p3
I3
sVf3964c3a-d694-4cc2-837c-5187a78de714@fake.data.com/operator0
p4
I4
sV7d79a0ff-f1dc-4702-a166-3c7f3ae3f9df@fake.data.com/operator0
p5
I6
sV5fd2b6e4-5b65-4d1e-b226-10ee9b0b4b37@visitors.fake.data.com/161008b0-1398-42fc-830b-4e05d33059af
p6
I7
sV12990f12-a965-4250-bffc-0e25bbd923e9@fake.data.com/operator0
p7
I8
sV2242122b-72b3-427f-8b1e-13c7c44b5540@fake.data.com/operator0
p8
I9
sV1e5e67db-3b42-438f-b60c-a1b84bbeb8a9@fake.data.com/operator0
p9
I10
sVba84abe1-bae5-4fbb-9470-cc8d505c151e@visitors.fake.data.com/583e4ebc-db21-43e0-9db9-c86dbc995b3b
p10
I11
sVcf486ff2-34e0-4b32-91a5-3e693f0fd5ae@visitors.fake.data.com/f8bed1f7-8fa6-4cd2-b048-9fbad5009597
p11
I12
sVbc1b2ea3-3c03-4303-9653-f63bccfc07b3@visitors.fake.data.com/34fdb384-68b9-4f22-babb-a4580c9f9733
p12
I1
sV3d856796-4d69-459c-9a67-ccae0dfa9703@visitors.fake.data.com/51850318-64fe-40aa-b6cd-00ac5b4cbad3
p13
I14
sVc1c3d169-109e-4015-87b2-24aba15253bb@fake.data.com/operator0
p14
I31
sV8a6389bb-4cf9-4786-9384-1e7e1e26bc32@visitors.fake.data.com/f00301ce-a56b-4da0-9802-fd1a2d6fb949
p15
I15
sV4d688d54-0aa7-4e41-89ac-cc582409bc18@visitors.fake.data.com/de32a8db-4343-43fe-9b64-910857eed1fb
p16
I16
sVab4d6bba-4c49-4974-8e38-1846310231da@visitors.fake.data.com/bce1094c-1324-48e5-95e2-f14525377187
p17
I17
sV3d856796-4d69-459c-9a67-ccae0dfa9703@visitors.fake.data.com/d4aab53c-52dd-452f-8848-ebdc2aeb91ef
p18
I18
sV22c03846-6a99-46a8-a098-d431a428d3fd@visitors.fake.data.com/3f7767e9-3314-4608-9538-24a5107c95b4
p19
I19
sVf73d2710-893b-4325-9764-81b9b2747ba5@visitors.fake.data.com/b63f4fe0-4baa-43b1-95a9-6bc20332abfa
p20
I20
sV4000d69b-b759-44d2-956a-a05e97e6e94d@fake.data.com/operator0
p21
I21
sV5fd2b6e4-5b65-4d1e-b226-10ee9b0b4b37@visitors.fake.data.com/d236d09b-41d9-48e0-88f8-355f5b7a399a
p22
I22
sVe3cd27a1-e082-44b4-9ee1-7f5c0d2d4f9f@visitors.fake.data.com/0df195e8-c828-4a59-8001-63d38edb67a3
p23
I23
sV0479ad2e-06ef-41e5-82e8-c709c0db2918@visitors.fake.data.com/bfe335bc-908b-4e6f-8044-40ec76fb28b0
p24
I24
sV7b023cbb-284f-4013-9a74-1ec2346a5afd@fake.data.com/operator0
p25
I25
sV101ab834-3b2e-4d93-8b81-4da6ea20932d@fake.data.com/operator0
p26
I26
sV2d961835-4eb3-4cca-a411-2041027c3d2a@visitors.fake.data.com/3e617dd8-5171-4080-a002-823b53999c5b
p27
I27
sV31b44d5e-e644-4d69-8be7-eb495049275f@visitors.fake.data.com/9518bf1d-f6d9-4b36-9fad-56d77e508154
p28
I28
sV9f3132d8-b469-4ea0-a1cd-7a82b63ba188@fake.data.com/operator0
p29
I29
sV9cb153e7-df05-4d36-a464-fa9e8235e394@visitors.fake.data.com/d8a19c56-f28c-4727-92c1-c3025e267be3
p30
I30
sVfd9a1ee9-a93a-42c0-aee9-596bc5eb5da2@fake.data.com/operator0
p31
I5
sV998b78e2-a4ea-4ba7-a07d-f638503545f9@fake.data.com/operator0
p32
I32
sV3d856796-4d69-459c-9a67-ccae0dfa9703@visitors.fake.data.com/769475c9-d90a-4765-b92d-5e8240688d0c
p33
I33
sV4d688d54-0aa7-4e41-89ac-cc582409bc18@visitors.fake.data.com/e63fb398-449d-4685-af93-e332beb33ef8
p34
I34
sV174d6f63-6818-4852-8087-db3b0aa197e8@fake.data.com/operator0
p35
I35
sV5d86ea99-45c8-413a-80d4-2b1ff2df07bd@visitors.fake.data.com/30bd51e6-b314-4e94-be50-884b9fb41634
p36
I36
s.(dp0
Fnan
I0
sFnan
I37
sV25b2ee5a-8d2f-47c4-9cf3-6beba1dc4be3@fake.data.com/operator0
p1
I13
sV22c03846-6a99-46a8-a098-d431a428d3fd@visitors.fake.data.com/46dc9398-a4fe-4345-8a8c-a207a136646c
p2
I2
sV7ea01afd-28f4-4f8c-a9d1-e97bdeb4df0b@fake.data.com/operator0
p3
I3
sVf3964c3a-d694-4cc2-837c-5187a78de714@fake.data.com/operator0
p4
I4
sV7d79a0ff-f1dc-4702-a166-3c7f3ae3f9df@fake.data.com/operator0
p5
I6
sV5fd2b6e4-5b65-4d1e-b226-10ee9b0b4b37@visitors.fake.data.com/161008b0-1398-42fc-830b-4e05d33059af
p6
I7
sV12990f12-a965-4250-bffc-0e25bbd923e9@fake.data.com/operator0
p7
I8
sV2242122b-72b3-427f-8b1e-13c7c44b5540@fake.data.com/operator0
p8
I9
sV1e5e67db-3b42-438f-b60c-a1b84bbeb8a9@fake.data.com/operator0
p9
I10
sVba84abe1-bae5-4fbb-9470-cc8d505c151e@visitors.fake.data.com/583e4ebc-db21-43e0-9db9-c86dbc995b3b
p10
I11
sVcf486ff2-34e0-4b32-91a5-3e693f0fd5ae@visitors.fake.data.com/f8bed1f7-8fa6-4cd2-b048-9fbad5009597
p11
I12
sVbc1b2ea3-3c03-4303-9653-f63bccfc07b3@visitors.fake.data.com/34fdb384-68b9-4f22-babb-a4580c9f9733
p12
I1
sV3d856796-4d69-459c-9a67-ccae0dfa9703@visitors.fake.data.com/51850318-64fe-40aa-b6cd-00ac5b4cbad3
p13
I14
sVc1c3d169-109e-4015-87b2-24aba15253bb@fake.data.com/operator0
p14
I31
sV8a6389bb-4cf9-4786-9384-1e7e1e26bc32@visitors.fake.data.com/f00301ce-a56b-4da0-9802-fd1a2d6fb949
p15
I15
sV4d688d54-0aa7-4e41-89ac-cc582409bc18@visitors.fake.data.com/de32a8db-4343-43fe-9b64-910857eed1fb
p16
I16
sVab4d6bba-4c49-4974-8e38-1846310231da@visitors.fake.data.com/bce1094c-1324-48e5-95e2-f14525377187
p17
I17
sV3d856796-4d69-459c-9a67-ccae0dfa9703@visitors.fake.data.com/d4aab53c-52dd-452f-8848-ebdc2aeb91ef
p18
I18
sV22c03846-6a99-46a8-a098-d431a428d3fd@visitors.fake.data.com/3f7767e9-3314-4608-9538-24a5107c95b4
p19
I19
sVf73d2710-893b-4325-9764-81b9b2747ba5@visitors.fake.data.com/b63f4fe0-4baa-43b1-95a9-6bc20332abfa
p20
I20
sV4000d69b-b759-44d2-956a-a05e97e6e94d@fake.data.com/operator0
p21
I21
sV5fd2b6e4-5b65-4d1e-b226-10ee9b0b4b37@visitors.fake.data.com/d236d09b-41d9-48e0-88f8-355f5b7a399a
p22
I22
sVe3cd27a1-e082-44b4-9ee1-7f5c0d2d4f9f@visitors.fake.data.com/0df195e8-c828-4a59-8001-63d38edb67a3
p23
I23
sV0479ad2e-06ef-41e5-82e8-c709c0db2918@visitors.fake.data.com/bfe335bc-908b-4e6f-8044-40ec76fb28b0
p24
I24
sV7b023cbb-284f-4013-9a74-1ec2346a5afd@fake.data.com/operator0
p25
I25
sV101ab834-3b2e-4d93-8b81-4da6ea20932d@fake.data.com/operator0
p26
I26
sV2d961835-4eb3-4cca-a411-2041027c3d2a@visitors.fake.data.com/3e617dd8-5171-4080-a002-823b53999c5b
p27
I27
sV31b44d5e-e644-4d69-8be7-eb495049275f@visitors.fake.data.com/9518bf1d-f6d9-4b36-9fad-56d77e508154
p28
I28
sV9f3132d8-b469-4ea0-a1cd-7a82b63ba188@fake.data.com/operator0
p29
I29
sV9cb153e7-df05-4d36-a464-fa9e8235e394@visitors.fake.data.com/d8a19c56-f28c-4727-92c1-c3025e267be3
p30
I30
sVfd9a1ee9-a93a-42c0-aee9-596bc5eb5da2@fake.data.com/operator0
p31
I5
sV998b78e2-a4ea-4ba7-a07d-f638503545f9@fake.data.com/operator0
p32
I32
sV3d856796-4d69-459c-9a67-ccae0dfa9703@visitors.fake.data.com/769475c9-d90a-4765-b92d-5e8240688d0c
p33
I33
sV4d688d54-0aa7-4e41-89ac-cc582409bc18@visitors.fake.data.com/e63fb398-449d-4685-af93-e332beb33ef8
p34
I34
sV174d6f63-6818-4852-8087-db3b0aa197e8@fake.data.com/operator0
p35
I35
sV5d86ea99-45c8-413a-80d4-2b1ff2df07bd@visitors.fake.data.com/30bd51e6-b314-4e94-be50-884b9fb41634
p36
I36
s.(dp0
Fnan
I0
sFnan
I37
sV25b2ee5a-8d2f-47c4-9cf3-6beba1dc4be3@fake.data.com/operator0
p1
I13
sV22c03846-6a99-46a8-a098-d431a428d3fd@visitors.fake.data.com/46dc9398-a4fe-4345-8a8c-a207a136646c
p2
I2
sV7ea01afd-28f4-4f8c-a9d1-e97bdeb4df0b@fake.data.com/operator0
p3
I3
sVf3964c3a-d694-4cc2-837c-5187a78de714@fake.data.com/operator0
p4
I4
sV7d79a0ff-f1dc-4702-a166-3c7f3ae3f9df@fake.data.com/operator0
p5
I6
sV5fd2b6e4-5b65-4d1e-b226-10ee9b0b4b37@visitors.fake.data.com/161008b0-1398-42fc-830b-4e05d33059af
p6
I7
sV12990f12-a965-4250-bffc-0e25bbd923e9@fake.data.com/operator0
p7
I8
sV2242122b-72b3-427f-8b1e-13c7c44b5540@fake.data.com/operator0
p8
I9
sV1e5e67db-3b42-438f-b60c-a1b84bbeb8a9@fake.data.com/operator0
p9
I10
sVba84abe1-bae5-4fbb-9470-cc8d505c151e@visitors.fake.data.com/583e4ebc-db21-43e0-9db9-c86dbc995b3b
p10
I11
sVcf486ff2-34e0-4b32-91a5-3e693f0fd5ae@visitors.fake.data.com/f8bed1f7-8fa6-4cd2-b048-9fbad5009597
p11
I12
sVbc1b2ea3-3c03-4303-9653-f63bccfc07b3@visitors.fake.data.com/34fdb384-68b9-4f22-babb-a4580c9f9733
p12
I1
sV3d856796-4d69-459c-9a67-ccae0dfa9703@visitors.fake.data.com/51850318-64fe-40aa-b6cd-00ac5b4cbad3
p13
I14
sVc1c3d169-109e-4015-87b2-24aba15253bb@fake.data.com/operator0
p14
I31
sV8a6389bb-4cf9-4786-9384-1e7e1e26bc32@visitors.fake.data.com/f00301ce-a56b-4da0-9802-fd1a2d6fb949
p15
I15
sV4d688d54-0aa7-4e41-89ac-cc582409bc18@visitors.fake.data.com/de32a8db-4343-43fe-9b64-910857eed1fb
p16
I16
sVab4d6bba-4c49-4974-8e38-1846310231da@visitors.fake.data.com/bce1094c-1324-48e5-95e2-f14525377187
p17
I17
sV3d856796-4d69-459c-9a67-ccae0dfa9703@visitors.fake.data.com/d4aab53c-52dd-452f-8848-ebdc2aeb91ef
p18
I18
sV22c03846-6a99-46a8-a098-d431a428d3fd@visitors.fake.data.com/3f7767e9-3314-4608-9538-24a5107c95b4
p19
I19
sVf73d2710-893b-4325-9764-81b9b2747ba5@visitors.fake.data.com/b63f4fe0-4baa-43b1-95a9-6bc20332abfa
p20
I20
sV4000d69b-b759-44d2-956a-a05e97e6e94d@fake.data.com/operator0
p21
I21
sV5fd2b6e4-5b65-4d1e-b226-10ee9b0b4b37@visitors.fake.data.com/d236d09b-41d9-48e0-88f8-355f5b7a399a
p22
I22
sVe3cd27a1-e082-44b4-9ee1-7f5c0d2d4f9f@visitors.fake.data.com/0df195e8-c828-4a59-8001-63d38edb67a3
p23
I23
sV0479ad2e-06ef-41e5-82e8-c709c0db2918@visitors.fake.data.com/bfe335bc-908b-4e6f-8044-40ec76fb28b0
p24
I24
sV7b023cbb-284f-4013-9a74-1ec2346a5afd@fake.data.com/operator0
p25
I25
sV101ab834-3b2e-4d93-8b81-4da6ea20932d@fake.data.com/operator0
p26
I26
sV2d961835-4eb3-4cca-a411-2041027c3d2a@visitors.fake.data.com/3e617dd8-5171-4080-a002-823b53999c5b
p27
I27
sV31b44d5e-e644-4d69-8be7-eb495049275f@visitors.fake.data.com/9518bf1d-f6d9-4b36-9fad-56d77e508154
p28
I28
sV9f3132d8-b469-4ea0-a1cd-7a82b63ba188@fake.data.com/operator0
p29
I29
sV9cb153e7-df05-4d36-a464-fa9e8235e394@visitors.fake.data.com/d8a19c56-f28c-4727-92c1-c3025e267be3
p30
I30
sVfd9a1ee9-a93a-42c0-aee9-596bc5eb5da2@fake.data.com/operator0
p31
I5
sV998b78e2-a4ea-4ba7-a07d-f638503545f9@fake.data.com/operator0
p32
I32
sV3d856796-4d69-459c-9a67-ccae0dfa9703@visitors.fake.data.com/769475c9-d90a-4765-b92d-5e8240688d0c
p33
I33
sV4d688d54-0aa7-4e41-89ac-cc582409bc18@visitors.fake.data.com/e63fb398-449d-4685-af93-e332beb33ef8
p34
I34
sV174d6f63-6818-4852-8087-db3b0aa197e8@fake.data.com/operator0
p35
I35
sV5d86ea99-45c8-413a-80d4-2b1ff2df07bd@visitors.fake.data.com/30bd51e6-b314-4e94-be50-884b9fb41634
p36
I36
s.(dp0
Fnan
I0
sFnan
I37
sV25b2ee5a-8d2f-47c4-9cf3-6beba1dc4be3@fake.data.com/operator0
p1
I13
sV22c03846-6a99-46a8-a098-d431a428d3fd@visitors.fake.data.com/46dc9398-a4fe-4345-8a8c-a207a136646c
p2
I2
sV7ea01afd-28f4-4f8c-a9d1-e97bdeb4df0b@fake.data.com/operator0
p3
I3
sVf3964c3a-d694-4cc2-837c-5187a78de714@fake.data.com/operator0
p4
I4
sV7d79a0ff-f1dc-4702-a166-3c7f3ae3f9df@fake.data.com/operator0
p5
I6
sV5fd2b6e4-5b65-4d1e-b226-10ee9b0b4b37@visitors.fake.data.com/161008b0-1398-42fc-830b-4e05d33059af
p6
I7
sV12990f12-a965-4250-bffc-0e25bbd923e9@fake.data.com/operator0
p7
I8
sV2242122b-72b3-427f-8b1e-13c7c44b5540@fake.data.com/operator0
p8
I9
sV1e5e67db-3b42-438f-b60c-a1b84bbeb8a9@fake.data.com/operator0
p9
I10
sVba84abe1-bae5-4fbb-9470-cc8d505c151e@visitors.fake.data.com/583e4ebc-db21-43e0-9db9-c86dbc995b3b
p10
I11
sVcf486ff2-34e0-4b32-91a5-3e693f0fd5ae@visitors.fake.data.com/f8bed1f7-8fa6-4cd2-b048-9fbad5009597
p11
I12
sVbc1b2ea3-3c03-4303-9653-f63bccfc07b3@visitors.fake.data.com/34fdb384-68b9-4f22-babb-a4580c9f9733
p12
I1
sV3d856796-4d69-459c-9a67-ccae0dfa9703@visitors.fake.data.com/51850318-64fe-40aa-b6cd-00ac5b4cbad3
p13
I14
sVc1c3d169-109e-4015-87b2-24aba15253bb@fake.data.com/operator0
p14
I31
sV8a6389bb-4cf9-4786-9384-1e7e1e26bc32@visitors.fake.data.com/f00301ce-a56b-4da0-9802-fd1a2d6fb949
p15
I15
sV4d688d54-0aa7-4e41-89ac-cc582409bc18@visitors.fake.data.com/de32a8db-4343-43fe-9b64-910857eed1fb
p16
I16
sVab4d6bba-4c49-4974-8e38-1846310231da@visitors.fake.data.com/bce1094c-1324-48e5-95e2-f14525377187
p17
I17
sV3d856796-4d69-459c-9a67-ccae0dfa9703@visitors.fake.data.com/d4aab53c-52dd-452f-8848-ebdc2aeb91ef
p18
I18
sV22c03846-6a99-46a8-a098-d431a428d3fd@visitors.fake.data.com/3f7767e9-3314-4608-9538-24a5107c95b4
p19
I19
sVf73d2710-893b-4325-9764-81b9b2747ba5@visitors.fake.data.com/b63f4fe0-4baa-43b1-95a9-6bc20332abfa
p20
I20
sV4000d69b-b759-44d2-956a-a05e97e6e94d@fake.data.com/operator0
p21
I21
sV5fd2b6e4-5b65-4d1e-b226-10ee9b0b4b37@visitors.fake.data.com/d236d09b-41d9-48e0-88f8-355f5b7a399a
p22
I22
sVe3cd27a1-e082-44b4-9ee1-7f5c0d2d4f9f@visitors.fake.data.com/0df195e8-c828-4a59-8001-63d38edb67a3
p23
I23
sV0479ad2e-06ef-41e5-82e8-c709c0db2918@visitors.fake.data.com/bfe335bc-908b-4e6f-8044-40ec76fb28b0
p24
I24
sV7b023cbb-284f-4013-9a74-1ec2346a5afd@fake.data.com/operator0
p25
I25
sV101ab834-3b2e-4d93-8b81-4da6ea20932d@fake.data.com/operator0
p26
I26
sV2d961835-4eb3-4cca-a411-2041027c3d2a@visitors.fake.data.com/3e617dd8-5171-4080-a002-823b53999c5b
p27
I27
sV31b44d5e-e644-4d69-8be7-eb495049275f@visitors.fake.data.com/9518bf1d-f6d9-4b36-9fad-56d77e508154
p28
I28
sV9f3132d8-b469-4ea0-a1cd-7a82b63ba188@fake.data.com/operator0
p29
I29
sV9cb153e7-df05-4d36-a464-fa9e8235e394@visitors.fake.data.com/d8a19c56-f28c-4727-92c1-c3025e267be3
p30
I30
sVfd9a1ee9-a93a-42c0-aee9-596bc5eb5da2@fake.data.com/operator0
p31
I5
sV998b78e2-a4ea-4ba7-a07d-f638503545f9@fake.data.com/operator0
p32
I32
sV3d856796-4d69-459c-9a67-ccae0dfa9703@visitors.fake.data.com/769475c9-d90a-4765-b92d-5e8240688d0c
p33
I33
sV4d688d54-0aa7-4e41-89ac-cc582409bc18@visitors.fake.data.com/e63fb398-449d-4685-af93-e332beb33ef8
p34
I34
sV174d6f63-6818-4852-8087-db3b0aa197e8@fake.data.com/operator0
p35
I35
sV5d86ea99-45c8-413a-80d4-2b1ff2df07bd@visitors.fake.data.com/30bd51e6-b314-4e94-be50-884b9fb41634
p36
I36
s.(dp0
Fnan
I0
sFnan
I37
sV25b2ee5a-8d2f-47c4-9cf3-6beba1dc4be3@fake.data.com/operator0
p1
I13
sV22c03846-6a99-46a8-a098-d431a428d3fd@visitors.fake.data.com/46dc9398-a4fe-4345-8a8c-a207a136646c
p2
I2
sV7ea01afd-28f4-4f8c-a9d1-e97bdeb4df0b@fake.data.com/operator0
p3
I3
sVf3964c3a-d694-4cc2-837c-5187a78de714@fake.data.com/operator0
p4
I4
sV7d79a0ff-f1dc-4702-a166-3c7f3ae3f9df@fake.data.com/operator0
p5
I6
sV5fd2b6e4-5b65-4d1e-b226-10ee9b0b4b37@visitors.fake.data.com/161008b0-1398-42fc-830b-4e05d33059af
p6
I7
sV12990f12-a965-4250-bffc-0e25bbd923e9@fake.data.com/operator0
p7
I8
sV2242122b-72b3-427f-8b1e-13c7c44b5540@fake.data.com/operator0
p8
I9
sV1e5e67db-3b42-438f-b60c-a1b84bbeb8a9@fake.data.com/operator0
p9
I10
sVba84abe1-bae5-4fbb-9470-cc8d505c151e@visitors.fake.data.com/583e4ebc-db21-43e0-9db9-c86dbc995b3b
p10
I11
sVcf486ff2-34e0-4b32-91a5-3e693f0fd5ae@visitors.fake.data.com/f8bed1f7-8fa6-4cd2-b048-9fbad5009597
p11
I12
sVbc1b2ea3-3c03-4303-9653-f63bccfc07b3@visitors.fake.data.com/34fdb384-68b9-4f22-babb-a4580c9f9733
p12
I1
sV3d856796-4d69-459c-9a67-ccae0dfa9703@visitors.fake.data.com/51850318-64fe-40aa-b6cd-00ac5b4cbad3
p13
I14
sVc1c3d169-109e-4015-87b2-24aba15253bb@fake.data.com/operator0
p14
I31
sV8a6389bb-4cf9-4786-9384-1e7e1e26bc32@visitors.fake.data.com/f00301ce-a56b-4da0-9802-fd1a2d6fb949
p15
I15
sV4d688d54-0aa7-4e41-89ac-cc582409bc18@visitors.fake.data.com/de32a8db-4343-43fe-9b64-910857eed1fb
p16
I16
sVab4d6bba-4c49-4974-8e38-1846310231da@visitors.fake.data.com/bce1094c-1324-48e5-95e2-f14525377187
p17
I17
sV3d856796-4d69-459c-9a67-ccae0dfa9703@visitors.fake.data.com/d4aab53c-52dd-452f-8848-ebdc2aeb91ef
p18
I18
sV22c03846-6a99-46a8-a098-d431a428d3fd@visitors.fake.data.com/3f7767e9-3314-4608-9538-24a5107c95b4
p19
I19
sVf73d2710-893b-4325-9764-81b9b2747ba5@visitors.fake.data.com/b63f4fe0-4baa-43b1-95a9-6bc20332abfa
p20
I20
sV4000d69b-b759-44d2-956a-a05e97e6e94d@fake.data.com/operator0
p21
I21
sV5fd2b6e4-5b65-4d1e-b226-10ee9b0b4b37@visitors.fake.data.com/d236d09b-41d9-48e0-88f8-355f5b7a399a
p22
I22
sVe3cd27a1-e082-44b4-9ee1-7f5c0d2d4f9f@visitors.fake.data.com/0df195e8-c828-4a59-8001-63d38edb67a3
p23
I23
sV0479ad2e-06ef-41e5-82e8-c709c0db2918@visitors.fake.data.com/bfe335bc-908b-4e6f-8044-40ec76fb28b0
p24
I24
sV7b023cbb-284f-4013-9a74-1ec2346a5afd@fake.data.com/operator0
p25
I25
sV101ab834-3b2e-4d93-8b81-4da6ea20932d@fake.data.com/operator0
p26
I26
sV2d961835-4eb3-4cca-a411-2041027c3d2a@visitors.fake.data.com/3e617dd8-5171-4080-a002-823b53999c5b
p27
I27
sV31b44d5e-e644-4d69-8be7-eb495049275f@visitors.fake.data.com/9518bf1d-f6d9-4b36-9fad-56d77e508154
p28
I28
sV9f3132d8-b469-4ea0-a1cd-7a82b63ba188@fake.data.com/operator0
p29
I29
sV9cb153e7-df05-4d36-a464-fa9e8235e394@visitors.fake.data.com/d8a19c56-f28c-4727-92c1-c3025e267be3
p30
I30
sVfd9a1ee9-a93a-42c0-aee9-596bc5eb5da2@fake.data.com/operator0
p31
I5
sV998b78e2-a4ea-4ba7-a07d-f638503545f9@fake.data.com/operator0
p32
I32
sV3d856796-4d69-459c-9a67-ccae0dfa9703@visitors.fake.data.com/769475c9-d90a-4765-b92d-5e8240688d0c
p33
I33
sV4d688d54-0aa7-4e41-89ac-cc582409bc18@visitors.fake.data.com/e63fb398-449d-4685-af93-e332beb33ef8
p34
I34
sV174d6f63-6818-4852-8087-db3b0aa197e8@fake.data.com/operator0
p35
I35
sV5d86ea99-45c8-413a-80d4-2b1ff2df07bd@visitors.fake.data.com/30bd51e6-b314-4e94-be50-884b9fb41634
p36
I36
s.(dp0
Fnan
I0
sFnan
I37
sV25b2ee5a-8d2f-47c4-9cf3-6beba1dc4be3@fake.data.com/operator0
p1
I13
sV22c03846-6a99-46a8-a098-d431a428d3fd@visitors.fake.data.com/46dc9398-a4fe-4345-8a8c-a207a136646c
p2
I2
sV7ea01afd-28f4-4f8c-a9d1-e97bdeb4df0b@fake.data.com/operator0
p3
I3
sVf3964c3a-d694-4cc2-837c-5187a78de714@fake.data.com/operator0
p4
I4
sV7d79a0ff-f1dc-4702-a166-3c7f3ae3f9df@fake.data.com/operator0
p5
I6
sV5fd2b6e4-5b65-4d1e-b226-10ee9b0b4b37@visitors.fake.data.com/161008b0-1398-42fc-830b-4e05d33059af
p6
I7
sV12990f12-a965-4250-bffc-0e25bbd923e9@fake.data.com/operator0
p7
I8
sV2242122b-72b3-427f-8b1e-13c7c44b5540@fake.data.com/operator0
p8
I9
sV1e5e67db-3b42-438f-b60c-a1b84bbeb8a9@fake.data.com/operator0
p9
I10
sVba84abe1-bae5-4fbb-9470-cc8d505c151e@visitors.fake.data.com/583e4ebc-db21-43e0-9db9-c86dbc995b3b
p10
I11
sVcf486ff2-34e0-4b32-91a5-3e693f0fd5ae@visitors.fake.data.com/f8bed1f7-8fa6-4cd2-b048-9fbad5009597
p11
I12
sVbc1b2ea3-3c03-4303-9653-f63bccfc07b3@visitors.fake.data.com/34fdb384-68b9-4f22-babb-a4580c9f9733
p12
I1
sV3d856796-4d69-459c-9a67-ccae0dfa9703@visitors.fake.data.com/51850318-64fe-40aa-b6cd-00ac5b4cbad3
p13
I14
sVc1c3d169-109e-4015-87b2-24aba15253bb@fake.data.com/operator0
p14
I31
sV8a6389bb-4cf9-4786-9384-1e7e1e26bc32@visitors.fake.data.com/f00301ce-a56b-4da0-9802-fd1a2d6fb949
p15
I15
sV4d688d54-0aa7-4e41-89ac-cc582409bc18@visitors.fake.data.com/de32a8db-4343-43fe-9b64-910857eed1fb
p16
I16
sVab4d6bba-4c49-4974-8e38-1846310231da@visitors.fake.data.com/bce1094c-1324-48e5-95e2-f14525377187
p17
I17
sV3d856796-4d69-459c-9a67-ccae0dfa9703@visitors.fake.data.com/d4aab53c-52dd-452f-8848-ebdc2aeb91ef
p18
I18
sV22c03846-6a99-46a8-a098-d431a428d3fd@visitors.fake.data.com/3f7767e9-3314-4608-9538-24a5107c95b4
p19
I19
sVf73d2710-893b-4325-9764-81b9b2747ba5@visitors.fake.data.com/b63f4fe0-4baa-43b1-95a9-6bc20332abfa
p20
I20
sV4000d69b-b759-44d2-956a-a05e97e6e94d@fake.data.com/operator0
p21
I21
sV5fd2b6e4-5b65-4d1e-b226-10ee9b0b4b37@visitors.fake.data.com/d236d09b-41d9-48e0-88f8-355f5b7a399a
p22
I22
sVe3cd27a1-e082-44b4-9ee1-7f5c0d2d4f9f@visitors.fake.data.com/0df195e8-c828-4a59-8001-63d38edb67a3
p23
I23
sV0479ad2e-06ef-41e5-82e8-c709c0db2918@visitors.fake.data.com/bfe335bc-908b-4e6f-8044-40ec76fb28b0
p24
I24
sV7b023cbb-284f-4013-9a74-1ec2346a5afd@fake.data.com/operator0
p25
I25
sV101ab834-3b2e-4d93-8b81-4da6ea20932d@fake.data.com/operator0
p26
I26
sV2d961835-4eb3-4cca-a411-2041027c3d2a@visitors.fake.data.com/3e617dd8-5171-4080-a002-823b53999c5b
p27
I27
sV31b44d5e-e644-4d69-8be7-eb495049275f@visitors.fake.data.com/9518bf1d-f6d9-4b36-9fad-56d77e508154
p28
I28
sV9f3132d8-b469-4ea0-a1cd-7a82b63ba188@fake.data.com/operator0
p29
I29
sV9cb153e7-df05-4d36-a464-fa9e8235e394@visitors.fake.data.com/d8a19c56-f28c-4727-92c1-c3025e267be3
p30
I30
sVfd9a1ee9-a93a-42c0-aee9-596bc5eb5da2@fake.data.com/operator0
p31
I5
sV998b78e2-a4ea-4ba7-a07d-f638503545f9@fake.data.com/operator0
p32
I32
sV3d856796-4d69-459c-9a67-ccae0dfa9703@visitors.fake.data.com/769475c9-d90a-4765-b92d-5e8240688d0c
p33
I33
sV4d688d54-0aa7-4e41-89ac-cc582409bc18@visitors.fake.data.com/e63fb398-449d-4685-af93-e332beb33ef8
p34
I34
sV174d6f63-6818-4852-8087-db3b0aa197e8@fake.data.com/operator0
p35
I35
sV5d86ea99-45c8-413a-80d4-2b1ff2df07bd@visitors.fake.data.com/30bd51e6-b314-4e94-be50-884b9fb41634
p36
I36
s.