(dp0
Vf0a0b391-3766-4ad8-a3d5-83735f8d5ebb
p1
I14
sV4d4c5c28-b811-460d-9066-4bff9382da00
p2
I12
sVb3bca65d-24da-4ba6-b5a2-1bb2a4e65428
p3
I1
sVa9be943f-f28e-408b-9f31-4519474e1102
p4
I2
sV15590b83-d89b-462e-980b-d4968d5454a5
p5
I3
sV37ba8eb5-3fda-4480-8932-be60eb607d7f
p6
I15
sVb73bc922-27c5-4219-8231-e34c00e4bb28
p7
I4
sV65224c55-3c2a-47a5-96e8-89322a0d1a61
p8
I6
sV72779a5b-a662-4eb6-b967-9884b5504382
p9
I7
sVe52b3590-823f-4ae7-8e2c-e6ed0898ffa8
p10
I8
sV396430fd-8515-4607-873f-fa811fa2398e
p11
I9
sVda41bde4-0ac9-4751-b20f-a462954a1f9c
p12
I10
sV0c86afcb-864d-4cca-8014-fc417d9a9c01
p13
I11
sVe49bd7a7-f437-4cea-ad41-5fd4a93d43fb
p14
I13
sV76e7c2ce-3a5e-4713-9e1e-03bb2b583d84
p15
I5
sV5f4f4b0a-429a-42eb-bd96-63828d88149b
p16
I0
sVa91e7a2a-9169-43cf-bf70-38036952c814
p17
I16
sV1a9357df-71a0-4df0-b2b4-54737acc44a3
p18
I17
sVf44c9610-179d-4a0f-a583-401cabd19749
p19
I18
s.(dp0
V4d4c5c28-b811-460d-9066-4bff9382da00
p1
I12
sVb3bca65d-24da-4ba6-b5a2-1bb2a4e65428
p2
I1
sVa9be943f-f28e-408b-9f31-4519474e1102
p3
I2
sV15590b83-d89b-462e-980b-d4968d5454a5
p4
I3
sVb73bc922-27c5-4219-8231-e34c00e4bb28
p5
I4
sV76e7c2ce-3a5e-4713-9e1e-03bb2b583d84
p6
I5
sV65224c55-3c2a-47a5-96e8-89322a0d1a61
p7
I6
sV72779a5b-a662-4eb6-b967-9884b5504382
p8
I7
sVe52b3590-823f-4ae7-8e2c-e6ed0898ffa8
p9
I8
sV396430fd-8515-4607-873f-fa811fa2398e
p10
I9
sV5f4f4b0a-429a-42eb-bd96-63828d88149b
p11
I0
sVf0a0b391-3766-4ad8-a3d5-83735f8d5ebb
p12
I14
sV0c86afcb-864d-4cca-8014-fc417d9a9c01
p13
I11
sVe49bd7a7-f437-4cea-ad41-5fd4a93d43fb
p14
I13
sVda41bde4-0ac9-4751-b20f-a462954a1f9c
p15
I10
sV37ba8eb5-3fda-4480-8932-be60eb607d7f
p16
I15
sVa91e7a2a-9169-43cf-bf70-38036952c814
p17
I16
sV1a9357df-71a0-4df0-b2b4-54737acc44a3
p18
I17
sVf44c9610-179d-4a0f-a583-401cabd19749
p19
I18
s.(dp0
V4d4c5c28-b811-460d-9066-4bff9382da00
p1
I12
sVb3bca65d-24da-4ba6-b5a2-1bb2a4e65428
p2
I1
sVa9be943f-f28e-408b-9f31-4519474e1102
p3
I2
sV15590b83-d89b-462e-980b-d4968d5454a5
p4
I3
sVb73bc922-27c5-4219-8231-e34c00e4bb28
p5
I4
sV76e7c2ce-3a5e-4713-9e1e-03bb2b583d84
p6
I5
sV65224c55-3c2a-47a5-96e8-89322a0d1a61
p7
I6
sV72779a5b-a662-4eb6-b967-9884b5504382
p8
I7
sVe52b3590-823f-4ae7-8e2c-e6ed0898ffa8
p9
I8
sV396430fd-8515-4607-873f-fa811fa2398e
p10
I9
sV5f4f4b0a-429a-42eb-bd96-63828d88149b
p11
I0
sVf0a0b391-3766-4ad8-a3d5-83735f8d5ebb
p12
I14
sV0c86afcb-864d-4cca-8014-fc417d9a9c01
p13
I11
sVe49bd7a7-f437-4cea-ad41-5fd4a93d43fb
p14
I13
sVda41bde4-0ac9-4751-b20f-a462954a1f9c
p15
I10
sV37ba8eb5-3fda-4480-8932-be60eb607d7f
p16
I15
sVa91e7a2a-9169-43cf-bf70-38036952c814
p17
I16
sV1a9357df-71a0-4df0-b2b4-54737acc44a3
p18
I17
sVf44c9610-179d-4a0f-a583-401cabd19749
p19
I18
s.(dp0
V4d4c5c28-b811-460d-9066-4bff9382da00
p1
I12
sVb3bca65d-24da-4ba6-b5a2-1bb2a4e65428
p2
I1
sVa9be943f-f28e-408b-9f31-4519474e1102
p3
I2
sV15590b83-d89b-462e-980b-d4968d5454a5
p4
I3
sVb73bc922-27c5-4219-8231-e34c00e4bb28
p5
I4
sV76e7c2ce-3a5e-4713-9e1e-03bb2b583d84
p6
I5
sV65224c55-3c2a-47a5-96e8-89322a0d1a61
p7
I6
sV72779a5b-a662-4eb6-b967-9884b5504382
p8
I7
sVe52b3590-823f-4ae7-8e2c-e6ed0898ffa8
p9
I8
sV396430fd-8515-4607-873f-fa811fa2398e
p10
I9
sV5f4f4b0a-429a-42eb-bd96-63828d88149b
p11
I0
sVf0a0b391-3766-4ad8-a3d5-83735f8d5ebb
p12
I14
sV0c86afcb-864d-4cca-8014-fc417d9a9c01
p13
I11
sVe49bd7a7-f437-4cea-ad41-5fd4a93d43fb
p14
I13
sVda41bde4-0ac9-4751-b20f-a462954a1f9c
p15
I10
sV37ba8eb5-3fda-4480-8932-be60eb607d7f
p16
I15
sVa91e7a2a-9169-43cf-bf70-38036952c814
p17
I16
sV1a9357df-71a0-4df0-b2b4-54737acc44a3
p18
I17
sVf44c9610-179d-4a0f-a583-401cabd19749
p19
I18
s.(dp0
V4d4c5c28-b811-460d-9066-4bff9382da00
p1
I12
sVb3bca65d-24da-4ba6-b5a2-1bb2a4e65428
p2
I1
sVa9be943f-f28e-408b-9f31-4519474e1102
p3
I2
sV15590b83-d89b-462e-980b-d4968d5454a5
p4
I3
sVb73bc922-27c5-4219-8231-e34c00e4bb28
p5
I4
sV76e7c2ce-3a5e-4713-9e1e-03bb2b583d84
p6
I5
sV65224c55-3c2a-47a5-96e8-89322a0d1a61
p7
I6
sV72779a5b-a662-4eb6-b967-9884b5504382
p8
I7
sVe52b3590-823f-4ae7-8e2c-e6ed0898ffa8
p9
I8
sV396430fd-8515-4607-873f-fa811fa2398e
p10
I9
sV5f4f4b0a-429a-42eb-bd96-63828d88149b
p11
I0
sVf0a0b391-3766-4ad8-a3d5-83735f8d5ebb
p12
I14
sV0c86afcb-864d-4cca-8014-fc417d9a9c01
p13
I11
sVe49bd7a7-f437-4cea-ad41-5fd4a93d43fb
p14
I13
sVda41bde4-0ac9-4751-b20f-a462954a1f9c
p15
I10
sV37ba8eb5-3fda-4480-8932-be60eb607d7f
p16
I15
sVa91e7a2a-9169-43cf-bf70-38036952c814
p17
I16
sV1a9357df-71a0-4df0-b2b4-54737acc44a3
p18
I17
sVf44c9610-179d-4a0f-a583-401cabd19749
p19
I18
s.(dp0
V4d4c5c28-b811-460d-9066-4bff9382da00
p1
I12
sVb3bca65d-24da-4ba6-b5a2-1bb2a4e65428
p2
I1
sVa9be943f-f28e-408b-9f31-4519474e1102
p3
I2
sV15590b83-d89b-462e-980b-d4968d5454a5
p4
I3
sVb73bc922-27c5-4219-8231-e34c00e4bb28
p5
I4
sV76e7c2ce-3a5e-4713-9e1e-03bb2b583d84
p6
I5
sV65224c55-3c2a-47a5-96e8-89322a0d1a61
p7
I6
sV72779a5b-a662-4eb6-b967-9884b5504382
p8
I7
sVe52b3590-823f-4ae7-8e2c-e6ed0898ffa8
p9
I8
sV396430fd-8515-4607-873f-fa811fa2398e
p10
I9
sV5f4f4b0a-429a-42eb-bd96-63828d88149b
p11
I0
sVf0a0b391-3766-4ad8-a3d5-83735f8d5ebb
p12
I14
sV0c86afcb-864d-4cca-8014-fc417d9a9c01
p13
I11
sVe49bd7a7-f437-4cea-ad41-5fd4a93d43fb
p14
I13
sVda41bde4-0ac9-4751-b20f-a462954a1f9c
p15
I10
sV37ba8eb5-3fda-4480-8932-be60eb607d7f
p16
I15
sVa91e7a2a-9169-43cf-bf70-38036952c814
p17
I16
sV1a9357df-71a0-4df0-b2b4-54737acc44a3
p18
I17
sVf44c9610-179d-4a0f-a583-401cabd19749
p19
I18
s.(dp0
V4d4c5c28-b811-460d-9066-4bff9382da00
p1
I12
sVb3bca65d-24da-4ba6-b5a2-1bb2a4e65428
p2
I1
sVa9be943f-f28e-408b-9f31-4519474e1102
p3
I2
sV15590b83-d89b-462e-980b-d4968d5454a5
p4
I3
sVb73bc922-27c5-4219-8231-e34c00e4bb28
p5
I4
sV76e7c2ce-3a5e-4713-9e1e-03bb2b583d84
p6
I5
sV65224c55-3c2a-47a5-96e8-89322a0d1a61
p7
I6
sV72779a5b-a662-4eb6-b967-9884b5504382
p8
I7
sVe52b3590-823f-4ae7-8e2c-e6ed0898ffa8
p9
I8
sV396430fd-8515-4607-873f-fa811fa2398e
p10
I9
sV5f4f4b0a-429a-42eb-bd96-63828d88149b
p11
I0
sVf0a0b391-3766-4ad8-a3d5-83735f8d5ebb
p12
I14
sV0c86afcb-864d-4cca-8014-fc417d9a9c01
p13
I11
sVe49bd7a7-f437-4cea-ad41-5fd4a93d43fb
p14
I13
sVda41bde4-0ac9-4751-b20f-a462954a1f9c
p15
I10
sV37ba8eb5-3fda-4480-8932-be60eb607d7f
p16
I15
sVa91e7a2a-9169-43cf-bf70-38036952c814
p17
I16
sV1a9357df-71a0-4df0-b2b4-54737acc44a3
p18
I17
sVf44c9610-179d-4a0f-a583-401cabd19749
p19
I18
s.(dp0
V4d4c5c28-b811-460d-9066-4bff9382da00
p1
I12
sVb3bca65d-24da-4ba6-b5a2-1bb2a4e65428
p2
I1
sVa9be943f-f28e-408b-9f31-4519474e1102
p3
I2
sV15590b83-d89b-462e-980b-d4968d5454a5
p4
I3
sVb73bc922-27c5-4219-8231-e34c00e4bb28
p5
I4
sV76e7c2ce-3a5e-4713-9e1e-03bb2b583d84
p6
I5
sV65224c55-3c2a-47a5-96e8-89322a0d1a61
p7
I6
sV72779a5b-a662-4eb6-b967-9884b5504382
p8
I7
sVe52b3590-823f-4ae7-8e2c-e6ed0898ffa8
p9
I8
sV396430fd-8515-4607-873f-fa811fa2398e
p10
I9
sV5f4f4b0a-429a-42eb-bd96-63828d88149b
p11
I0
sVf0a0b391-3766-4ad8-a3d5-83735f8d5ebb
p12
I14
sV0c86afcb-864d-4cca-8014-fc417d9a9c01
p13
I11
sVe49bd7a7-f437-4cea-ad41-5fd4a93d43fb
p14
I13
sVda41bde4-0ac9-4751-b20f-a462954a1f9c
p15
I10
sV37ba8eb5-3fda-4480-8932-be60eb607d7f
p16
I15
sVa91e7a2a-9169-43cf-bf70-38036952c814
p17
I16
sV1a9357df-71a0-4df0-b2b4-54737acc44a3
p18
I17
sVf44c9610-179d-4a0f-a583-401cabd19749
p19
I18
s.(dp0
V4d4c5c28-b811-460d-9066-4bff9382da00
p1
I12
sVb3bca65d-24da-4ba6-b5a2-1bb2a4e65428
p2
I1
sVa9be943f-f28e-408b-9f31-4519474e1102
p3
I2
sV15590b83-d89b-462e-980b-d4968d5454a5
p4
I3
sVb73bc922-27c5-4219-8231-e34c00e4bb28
p5
I4
sV76e7c2ce-3a5e-4713-9e1e-03bb2b583d84
p6
I5
sV65224c55-3c2a-47a5-96e8-89322a0d1a61
p7
I6
sV72779a5b-a662-4eb6-b967-9884b5504382
p8
I7
sVe52b3590-823f-4ae7-8e2c-e6ed0898ffa8
p9
I8
sV396430fd-8515-4607-873f-fa811fa2398e
p10
I9
sV5f4f4b0a-429a-42eb-bd96-63828d88149b
p11
I0
sVf0a0b391-3766-4ad8-a3d5-83735f8d5ebb
p12
I14
sV0c86afcb-864d-4cca-8014-fc417d9a9c01
p13
I11
sVe49bd7a7-f437-4cea-ad41-5fd4a93d43fb
p14
I13
sVda41bde4-0ac9-4751-b20f-a462954a1f9c
p15
I10
sV37ba8eb5-3fda-4480-8932-be60eb607d7f
p16
I15
sVa91e7a2a-9169-43cf-bf70-38036952c814
p17
I16
sV1a9357df-71a0-4df0-b2b4-54737acc44a3
p18
I17
sVf44c9610-179d-4a0f-a583-401cabd19749
p19
I18
s.(dp0
V4d4c5c28-b811-460d-9066-4bff9382da00
p1
I12
sVb3bca65d-24da-4ba6-b5a2-1bb2a4e65428
p2
I1
sVa9be943f-f28e-408b-9f31-4519474e1102
p3
I2
sV15590b83-d89b-462e-980b-d4968d5454a5
p4
I3
sVb73bc922-27c5-4219-8231-e34c00e4bb28
p5
I4
sV76e7c2ce-3a5e-4713-9e1e-03bb2b583d84
p6
I5
sV65224c55-3c2a-47a5-96e8-89322a0d1a61
p7
I6
sV72779a5b-a662-4eb6-b967-9884b5504382
p8
I7
sVe52b3590-823f-4ae7-8e2c-e6ed0898ffa8
p9
I8
sV396430fd-8515-4607-873f-fa811fa2398e
p10
I9
sV5f4f4b0a-429a-42eb-bd96-63828d88149b
p11
I0
sVf0a0b391-3766-4ad8-a3d5-83735f8d5ebb
p12
I14
sV0c86afcb-864d-4cca-8014-fc417d9a9c01
p13
I11
sVe49bd7a7-f437-4cea-ad41-5fd4a93d43fb
p14
I13
sVda41bde4-0ac9-4751-b20f-a462954a1f9c
p15
I10
sV37ba8eb5-3fda-4480-8932-be60eb607d7f
p16
I15
sVa91e7a2a-9169-43cf-bf70-38036952c814
p17
I16
sV1a9357df-71a0-4df0-b2b4-54737acc44a3
p18
I17
sVf44c9610-179d-4a0f-a583-401cabd19749
p19
I18
s.(dp0
V4d4c5c28-b811-460d-9066-4bff9382da00
p1
I12
sVb3bca65d-24da-4ba6-b5a2-1bb2a4e65428
p2
I1
sVa9be943f-f28e-408b-9f31-4519474e1102
p3
I2
sV15590b83-d89b-462e-980b-d4968d5454a5
p4
I3
sVb73bc922-27c5-4219-8231-e34c00e4bb28
p5
I4
sV76e7c2ce-3a5e-4713-9e1e-03bb2b583d84
p6
I5
sV65224c55-3c2a-47a5-96e8-89322a0d1a61
p7
I6
sV72779a5b-a662-4eb6-b967-9884b5504382
p8
I7
sVe52b3590-823f-4ae7-8e2c-e6ed0898ffa8
p9
I8
sV396430fd-8515-4607-873f-fa811fa2398e
p10
I9
sV5f4f4b0a-429a-42eb-bd96-63828d88149b
p11
I0
sVf0a0b391-3766-4ad8-a3d5-83735f8d5ebb
p12
I14
sV0c86afcb-864d-4cca-8014-fc417d9a9c01
p13
I11
sVe49bd7a7-f437-4cea-ad41-5fd4a93d43fb
p14
I13
sVda41bde4-0ac9-4751-b20f-a462954a1f9c
p15
I10
sV37ba8eb5-3fda-4480-8932-be60eb607d7f
p16
I15
sVa91e7a2a-9169-43cf-bf70-38036952c814
p17
I16
sV1a9357df-71a0-4df0-b2b4-54737acc44a3
p18
I17
sVf44c9610-179d-4a0f-a583-401cabd19749
p19
I18
s.(dp0
V4d4c5c28-b811-460d-9066-4bff9382da00
p1
I12
sVb3bca65d-24da-4ba6-b5a2-1bb2a4e65428
p2
I1
sVa9be943f-f28e-408b-9f31-4519474e1102
p3
I2
sV15590b83-d89b-462e-980b-d4968d5454a5
p4
I3
sVb73bc922-27c5-4219-8231-e34c00e4bb28
p5
I4
sV76e7c2ce-3a5e-4713-9e1e-03bb2b583d84
p6
I5
sV65224c55-3c2a-47a5-96e8-89322a0d1a61
p7
I6
sV72779a5b-a662-4eb6-b967-9884b5504382
p8
I7
sVe52b3590-823f-4ae7-8e2c-e6ed0898ffa8
p9
I8
sV396430fd-8515-4607-873f-fa811fa2398e
p10
I9
sV5f4f4b0a-429a-42eb-bd96-63828d88149b
p11
I0
sVf0a0b391-3766-4ad8-a3d5-83735f8d5ebb
p12
I14
sV0c86afcb-864d-4cca-8014-fc417d9a9c01
p13
I11
sVe49bd7a7-f437-4cea-ad41-5fd4a93d43fb
p14
I13
sVda41bde4-0ac9-4751-b20f-a462954a1f9c
p15
I10
sV37ba8eb5-3fda-4480-8932-be60eb607d7f
p16
I15
sVa91e7a2a-9169-43cf-bf70-38036952c814
p17
I16
sV1a9357df-71a0-4df0-b2b4-54737acc44a3
p18
I17
sVf44c9610-179d-4a0f-a583-401cabd19749
p19
I18
s.(dp0
V4d4c5c28-b811-460d-9066-4bff9382da00
p1
I12
sVb3bca65d-24da-4ba6-b5a2-1bb2a4e65428
p2
I1
sVa9be943f-f28e-408b-9f31-4519474e1102
p3
I2
sV15590b83-d89b-462e-980b-d4968d5454a5
p4
I3
sVb73bc922-27c5-4219-8231-e34c00e4bb28
p5
I4
sV76e7c2ce-3a5e-4713-9e1e-03bb2b583d84
p6
I5
sV65224c55-3c2a-47a5-96e8-89322a0d1a61
p7
I6
sV72779a5b-a662-4eb6-b967-9884b5504382
p8
I7
sVe52b3590-823f-4ae7-8e2c-e6ed0898ffa8
p9
I8
sV396430fd-8515-4607-873f-fa811fa2398e
p10
I9
sV5f4f4b0a-429a-42eb-bd96-63828d88149b
p11
I0
sVf0a0b391-3766-4ad8-a3d5-83735f8d5ebb
p12
I14
sV0c86afcb-864d-4cca-8014-fc417d9a9c01
p13
I11
sVe49bd7a7-f437-4cea-ad41-5fd4a93d43fb
p14
I13
sVda41bde4-0ac9-4751-b20f-a462954a1f9c
p15
I10
sV37ba8eb5-3fda-4480-8932-be60eb607d7f
p16
I15
sVa91e7a2a-9169-43cf-bf70-38036952c814
p17
I16
sV1a9357df-71a0-4df0-b2b4-54737acc44a3
p18
I17
sVf44c9610-179d-4a0f-a583-401cabd19749
p19
I18
s.(dp0
V4d4c5c28-b811-460d-9066-4bff9382da00
p1
I12
sVb3bca65d-24da-4ba6-b5a2-1bb2a4e65428
p2
I1
sVa9be943f-f28e-408b-9f31-4519474e1102
p3
I2
sV15590b83-d89b-462e-980b-d4968d5454a5
p4
I3
sVb73bc922-27c5-4219-8231-e34c00e4bb28
p5
I4
sV76e7c2ce-3a5e-4713-9e1e-03bb2b583d84
p6
I5
sV65224c55-3c2a-47a5-96e8-89322a0d1a61
p7
I6
sV72779a5b-a662-4eb6-b967-9884b5504382
p8
I7
sVe52b3590-823f-4ae7-8e2c-e6ed0898ffa8
p9
I8
sV396430fd-8515-4607-873f-fa811fa2398e
p10
I9
sV5f4f4b0a-429a-42eb-bd96-63828d88149b
p11
I0
sVf0a0b391-3766-4ad8-a3d5-83735f8d5ebb
p12
I14
sV0c86afcb-864d-4cca-8014-fc417d9a9c01
p13
I11
sVe49bd7a7-f437-4cea-ad41-5fd4a93d43fb
p14
I13
sVda41bde4-0ac9-4751-b20f-a462954a1f9c
p15
I10
sV37ba8eb5-3fda-4480-8932-be60eb607d7f
p16
I15
sVa91e7a2a-9169-43cf-bf70-38036952c814
p17
I16
sV1a9357df-71a0-4df0-b2b4-54737acc44a3
p18
I17
sVf44c9610-179d-4a0f-a583-401cabd19749
p19
I18
s.(dp0
V4d4c5c28-b811-460d-9066-4bff9382da00
p1
I12
sVb3bca65d-24da-4ba6-b5a2-1bb2a4e65428
p2
I1
sVa9be943f-f28e-408b-9f31-4519474e1102
p3
I2
sV15590b83-d89b-462e-980b-d4968d5454a5
p4
I3
sVb73bc922-27c5-4219-8231-e34c00e4bb28
p5
I4
sV76e7c2ce-3a5e-4713-9e1e-03bb2b583d84
p6
I5
sV65224c55-3c2a-47a5-96e8-89322a0d1a61
p7
I6
sV72779a5b-a662-4eb6-b967-9884b5504382
p8
I7
sVe52b3590-823f-4ae7-8e2c-e6ed0898ffa8
p9
I8
sV396430fd-8515-4607-873f-fa811fa2398e
p10
I9
sV5f4f4b0a-429a-42eb-bd96-63828d88149b
p11
I0
sVf0a0b391-3766-4ad8-a3d5-83735f8d5ebb
p12
I14
sV0c86afcb-864d-4cca-8014-fc417d9a9c01
p13
I11
sVe49bd7a7-f437-4cea-ad41-5fd4a93d43fb
p14
I13
sVda41bde4-0ac9-4751-b20f-a462954a1f9c
p15
I10
sV37ba8eb5-3fda-4480-8932-be60eb607d7f
p16
I15
sVa91e7a2a-9169-43cf-bf70-38036952c814
p17
I16
sV1a9357df-71a0-4df0-b2b4-54737acc44a3
p18
I17
sVf44c9610-179d-4a0f-a583-401cabd19749
p19
I18
s.(dp0
V4d4c5c28-b811-460d-9066-4bff9382da00
p1
I12
sVb3bca65d-24da-4ba6-b5a2-1bb2a4e65428
p2
I1
sVa9be943f-f28e-408b-9f31-4519474e1102
p3
I2
sV15590b83-d89b-462e-980b-d4968d5454a5
p4
I3
sVb73bc922-27c5-4219-8231-e34c00e4bb28
p5
I4
sV76e7c2ce-3a5e-4713-9e1e-03bb2b583d84
p6
I5
sV65224c55-3c2a-47a5-96e8-89322a0d1a61
p7
I6
sV72779a5b-a662-4eb6-b967-9884b5504382
p8
I7
sVe52b3590-823f-4ae7-8e2c-e6ed0898ffa8
p9
I8
sV396430fd-8515-4607-873f-fa811fa2398e
p10
I9
sV5f4f4b0a-429a-42eb-bd96-63828d88149b
p11
I0
sVf0a0b391-3766-4ad8-a3d5-83735f8d5ebb
p12
I14
sV0c86afcb-864d-4cca-8014-fc417d9a9c01
p13
I11
sVe49bd7a7-f437-4cea-ad41-5fd4a93d43fb
p14
I13
sVda41bde4-0ac9-4751-b20f-a462954a1f9c
p15
I10
sV37ba8eb5-3fda-4480-8932-be60eb607d7f
p16
I15
sVa91e7a2a-9169-43cf-bf70-38036952c814
p17
I16
sV1a9357df-71a0-4df0-b2b4-54737acc44a3
p18
I17
sVf44c9610-179d-4a0f-a583-401cabd19749
p19
I18
s.(dp0
V4d4c5c28-b811-460d-9066-4bff9382da00
p1
I12
sVb3bca65d-24da-4ba6-b5a2-1bb2a4e65428
p2
I1
sVa9be943f-f28e-408b-9f31-4519474e1102
p3
I2
sV15590b83-d89b-462e-980b-d4968d5454a5
p4
I3
sVb73bc922-27c5-4219-8231-e34c00e4bb28
p5
I4
sV76e7c2ce-3a5e-4713-9e1e-03bb2b583d84
p6
I5
sV65224c55-3c2a-47a5-96e8-89322a0d1a61
p7
I6
sV72779a5b-a662-4eb6-b967-9884b5504382
p8
I7
sVe52b3590-823f-4ae7-8e2c-e6ed0898ffa8
p9
I8
sV396430fd-8515-4607-873f-fa811fa2398e
p10
I9
sV5f4f4b0a-429a-42eb-bd96-63828d88149b
p11
I0
sVf0a0b391-3766-4ad8-a3d5-83735f8d5ebb
p12
I14
sV0c86afcb-864d-4cca-8014-fc417d9a9c01
p13
I11
sVe49bd7a7-f437-4cea-ad41-5fd4a93d43fb
p14
I13
sVda41bde4-0ac9-4751-b20f-a462954a1f9c
p15
I10
sV37ba8eb5-3fda-4480-8932-be60eb607d7f
p16
I15
sVa91e7a2a-9169-43cf-bf70-38036952c814
p17
I16
sV1a9357df-71a0-4df0-b2b4-54737acc44a3
p18
I17
sVf44c9610-179d-4a0f-a583-401cabd19749
p19
I18
s.(dp0
V4d4c5c28-b811-460d-9066-4bff9382da00
p1
I12
sVb3bca65d-24da-4ba6-b5a2-1bb2a4e65428
p2
I1
sVa9be943f-f28e-408b-9f31-4519474e1102
p3
I2
sV15590b83-d89b-462e-980b-d4968d5454a5
p4
I3
sVb73bc922-27c5-4219-8231-e34c00e4bb28
p5
I4
sV76e7c2ce-3a5e-4713-9e1e-03bb2b583d84
p6
I5
sV65224c55-3c2a-47a5-96e8-89322a0d1a61
p7
I6
sV72779a5b-a662-4eb6-b967-9884b5504382
p8
I7
sVe52b3590-823f-4ae7-8e2c-e6ed0898ffa8
p9
I8
sV396430fd-8515-4607-873f-fa811fa2398e
p10
I9
sV5f4f4b0a-429a-42eb-bd96-63828d88149b
p11
I0
sVf0a0b391-3766-4ad8-a3d5-83735f8d5ebb
p12
I14
sV0c86afcb-864d-4cca-8014-fc417d9a9c01
p13
I11
sVe49bd7a7-f437-4cea-ad41-5fd4a93d43fb
p14
I13
sVda41bde4-0ac9-4751-b20f-a462954a1f9c
p15
I10
sV37ba8eb5-3fda-4480-8932-be60eb607d7f
p16
I15
sVa91e7a2a-9169-43cf-bf70-38036952c814
p17
I16
sV1a9357df-71a0-4df0-b2b4-54737acc44a3
p18
I17
sVf44c9610-179d-4a0f-a583-401cabd19749
p19
I18
s.(dp0
V4d4c5c28-b811-460d-9066-4bff9382da00
p1
I12
sVb3bca65d-24da-4ba6-b5a2-1bb2a4e65428
p2
I1
sVa9be943f-f28e-408b-9f31-4519474e1102
p3
I2
sV15590b83-d89b-462e-980b-d4968d5454a5
p4
I3
sVb73bc922-27c5-4219-8231-e34c00e4bb28
p5
I4
sV76e7c2ce-3a5e-4713-9e1e-03bb2b583d84
p6
I5
sV65224c55-3c2a-47a5-96e8-89322a0d1a61
p7
I6
sV72779a5b-a662-4eb6-b967-9884b5504382
p8
I7
sVe52b3590-823f-4ae7-8e2c-e6ed0898ffa8
p9
I8
sV396430fd-8515-4607-873f-fa811fa2398e
p10
I9
sV5f4f4b0a-429a-42eb-bd96-63828d88149b
p11
I0
sVf0a0b391-3766-4ad8-a3d5-83735f8d5ebb
p12
I14
sV0c86afcb-864d-4cca-8014-fc417d9a9c01
p13
I11
sVe49bd7a7-f437-4cea-ad41-5fd4a93d43fb
p14
I13
sVda41bde4-0ac9-4751-b20f-a462954a1f9c
p15
I10
sV37ba8eb5-3fda-4480-8932-be60eb607d7f
p16
I15
sVa91e7a2a-9169-43cf-bf70-38036952c814
p17
I16
sV1a9357df-71a0-4df0-b2b4-54737acc44a3
p18
I17
sVf44c9610-179d-4a0f-a583-401cabd19749
p19
I18
s.